///////////////////////////////////////////////////////////////////////////////
//
// IAR C/C++ Compiler V10.20.1.5333 for 8051              11/Oct/2020  11:56:30
// Copyright 2004-2018 IAR Systems AB.
// PC-locked license - IAR Embedded Workbench for 8051
//
//    Core               =  plain
//    Code model         =  banked
//    Data model         =  large
//    Calling convention =  xdata reentrant
//    Constant location  =  data_rom
//    Dptr setup         =  1,16
//                          
//    Source file        =  
//        D:\ZStack-CC2530-2.5.1a\Projects\zstack\Samples\GenericApp\CC2530DB\Coordinator.c
//    Command line       =  
//        -f C:\Users\17245\AppData\Local\Temp\EWCF74.tmp
//        (D:\ZStack-CC2530-2.5.1a\Projects\zstack\Samples\GenericApp\CC2530DB\Coordinator.c
//        -D ZTOOL_P1 -D MT_TASK -D MT_SYS_FUNC -D MT_ZDO_FUNC -D
//        LCD_SUPPORTED=DEBUG -D HAL_UART=TRUE -lC
//        D:\ZStack-CC2530-2.5.1a\Projects\zstack\Samples\GenericApp\CC2530DB\CoordinatorEB\List
//        -lA
//        D:\ZStack-CC2530-2.5.1a\Projects\zstack\Samples\GenericApp\CC2530DB\CoordinatorEB\List
//        --diag_suppress Pe001,Pa010 -o
//        D:\ZStack-CC2530-2.5.1a\Projects\zstack\Samples\GenericApp\CC2530DB\CoordinatorEB\Obj
//        -e --debug --core=plain --dptr=16,1 --data_model=large
//        --code_model=banked --calling_convention=xdata_reentrant
//        --place_constants=data_rom --nr_virtual_regs 8 -f
//        D:\ZStack-CC2530-2.5.1a\Projects\zstack\Samples\GenericApp\CC2530DB\..\..\..\Tools\CC2530DB\f8wCoord.cfg
//        (-DCPU32MHZ -DROOT=__near_func -DMAC_CFG_APP_PENDING_QUEUE=TRUE
//        -DMAC_CFG_TX_DATA_MAX=5 -DMAC_CFG_TX_MAX=8 -DMAC_CFG_RX_MAX=5
//        -DZDO_COORDINATOR -DRTR_NWK) -f
//        D:\ZStack-CC2530-2.5.1a\Projects\zstack\Samples\GenericApp\CC2530DB\..\..\..\Tools\CC2530DB\f8wConfig.cfg
//        (-DZIGBEEPRO -DSECURE=0 -DZG_SECURE_DYNAMIC=0 -DREFLECTOR
//        -DDEFAULT_CHANLIST=0x00000800 -DZDAPP_CONFIG_PAN_ID=0xFFFF
//        -DNWK_START_DELAY=100 -DEXTENDED_JOINING_RANDOM_MASK=0x007F
//        -DBEACON_REQUEST_DELAY=100 -DBEACON_REQ_DELAY_MASK=0x00FF
//        -DLINK_STATUS_JITTER_MASK=0x007F -DROUTE_EXPIRY_TIME=30
//        -DAPSC_ACK_WAIT_DURATION_POLLED=3000 -DNWK_INDIRECT_MSG_TIMEOUT=7
//        -DMAX_RREQ_ENTRIES=8 -DAPSC_MAX_FRAME_RETRIES=3
//        -DNWK_MAX_DATA_RETRIES=2 -DMAX_POLL_FAILURE_RETRIES=2 -DMAX_BCAST=9
//        -DAPS_MAX_GROUPS=16 -DMAX_RTG_ENTRIES=40 -DNWK_MAX_BINDING_ENTRIES=4
//        -DMAX_BINDING_CLUSTER_IDS=4 "-DDEFAULT_KEY={0x01, 0x03, 0x05, 0x07,
//        0x09, 0x0B, 0x0D, 0x0F, 0x00, 0x02, 0x04, 0x06, 0x08, 0x0A, 0x0C,
//        0x0D}" -DMAC_MAX_FRAME_SIZE=116 -DZDNWKMGR_MIN_TRANSMISSIONS=20
//        "-DCONST=const __code" -DGENERIC=__generic -DRFD_RCVC_ALWAYS_ON=FALSE
//        -DPOLL_RATE=1000 -DQUEUED_POLL_RATE=100 -DRESPONSE_POLL_RATE=100
//        -DREJOIN_POLL_RATE=440) -I
//        D:\ZStack-CC2530-2.5.1a\Projects\zstack\Samples\GenericApp\CC2530DB\
//        -I
//        D:\ZStack-CC2530-2.5.1a\Projects\zstack\Samples\GenericApp\CC2530DB\..\Source\
//        -I
//        D:\ZStack-CC2530-2.5.1a\Projects\zstack\Samples\GenericApp\CC2530DB\..\..\..\ZMain\TI2530DB\
//        -I
//        D:\ZStack-CC2530-2.5.1a\Projects\zstack\Samples\GenericApp\CC2530DB\..\..\..\..\..\Components\hal\include\
//        -I
//        D:\ZStack-CC2530-2.5.1a\Projects\zstack\Samples\GenericApp\CC2530DB\..\..\..\..\..\Components\hal\target\CC2530EB\
//        -I
//        D:\ZStack-CC2530-2.5.1a\Projects\zstack\Samples\GenericApp\CC2530DB\..\..\..\..\..\Components\mac\include\
//        -I
//        D:\ZStack-CC2530-2.5.1a\Projects\zstack\Samples\GenericApp\CC2530DB\..\..\..\..\..\Components\mac\high_level\
//        -I
//        D:\ZStack-CC2530-2.5.1a\Projects\zstack\Samples\GenericApp\CC2530DB\..\..\..\..\..\Components\mac\low_level\srf04\
//        -I
//        D:\ZStack-CC2530-2.5.1a\Projects\zstack\Samples\GenericApp\CC2530DB\..\..\..\..\..\Components\mac\low_level\srf04\single_chip\
//        -I
//        D:\ZStack-CC2530-2.5.1a\Projects\zstack\Samples\GenericApp\CC2530DB\..\..\..\..\..\Components\mt\
//        -I
//        D:\ZStack-CC2530-2.5.1a\Projects\zstack\Samples\GenericApp\CC2530DB\..\..\..\..\..\Components\osal\include\
//        -I
//        D:\ZStack-CC2530-2.5.1a\Projects\zstack\Samples\GenericApp\CC2530DB\..\..\..\..\..\Components\services\saddr\
//        -I
//        D:\ZStack-CC2530-2.5.1a\Projects\zstack\Samples\GenericApp\CC2530DB\..\..\..\..\..\Components\services\sdata\
//        -I
//        D:\ZStack-CC2530-2.5.1a\Projects\zstack\Samples\GenericApp\CC2530DB\..\..\..\..\..\Components\stack\af\
//        -I
//        D:\ZStack-CC2530-2.5.1a\Projects\zstack\Samples\GenericApp\CC2530DB\..\..\..\..\..\Components\stack\nwk\
//        -I
//        D:\ZStack-CC2530-2.5.1a\Projects\zstack\Samples\GenericApp\CC2530DB\..\..\..\..\..\Components\stack\sapi\
//        -I
//        D:\ZStack-CC2530-2.5.1a\Projects\zstack\Samples\GenericApp\CC2530DB\..\..\..\..\..\Components\stack\sec\
//        -I
//        D:\ZStack-CC2530-2.5.1a\Projects\zstack\Samples\GenericApp\CC2530DB\..\..\..\..\..\Components\stack\sys\
//        -I
//        D:\ZStack-CC2530-2.5.1a\Projects\zstack\Samples\GenericApp\CC2530DB\..\..\..\..\..\Components\stack\zdo\
//        -I
//        D:\ZStack-CC2530-2.5.1a\Projects\zstack\Samples\GenericApp\CC2530DB\..\..\..\..\..\Components\zmac\
//        -I
//        D:\ZStack-CC2530-2.5.1a\Projects\zstack\Samples\GenericApp\CC2530DB\..\..\..\..\..\Components\zmac\f8w\
//        -Ohz --no_code_motion)
//    Locale             =  Chinese (Simplified)_CHN.936
//    List file          =  
//        D:\ZStack-CC2530-2.5.1a\Projects\zstack\Samples\GenericApp\CC2530DB\CoordinatorEB\List\Coordinator.s51
//
///////////////////////////////////////////////////////////////////////////////

        NAME Coordinator

        RTMODEL "__SystemLibrary", "CLib"
        RTMODEL "__calling_convention", "xdata_reentrant"
        RTMODEL "__code_model", "banked"
        RTMODEL "__core", "plain"
        RTMODEL "__data_model", "large"
        RTMODEL "__dptr_size", "16"
        RTMODEL "__extended_stack", "disabled"
        RTMODEL "__iar_require _formatted_write", ""
        RTMODEL "__location_for_constants", "data"
        RTMODEL "__number_of_dptrs", "1"
        RTMODEL "__register_banks", "*"
        RTMODEL "__rt_version", "1"

        RSEG DOVERLAY:DATA:NOROOT(0)
        RSEG IOVERLAY:IDATA:NOROOT(0)
        RSEG ISTACK:IDATA:NOROOT(0)
        RSEG PSTACK:XDATA:NOROOT(0)
        RSEG XSTACK:XDATA:NOROOT(0)

        EXTERN ?V0
        EXTERN ?V1
        EXTERN ?V2
        EXTERN ?V4
        EXTERN ?V5
        EXTERN ?V3
        EXTERN ?V6
        EXTERN ?V7
        EXTERN ?ALLOC_XSTACK8
        EXTERN ?BANKED_ENTER_XDATA
        EXTERN ?BANKED_LEAVE_XDATA
        EXTERN ?BDISPATCH
        EXTERN ?BRET
        EXTERN ?DEALLOC_XSTACK8
        EXTERN ?L_ADD_X
        EXTERN ?PUSH_XSTACK_I_ONE
        EXTERN ?PUSH_XSTACK_I_THREE
        EXTERN ?PUSH_XSTACK_I_TWO
        EXTERN ?XSP
        EXTERN ?XSTACK_DISP0_8
        EXTERN ?XSTACK_DISP101_8
        EXTERN __INIT_XDATA_I
        EXTERN __INIT_XDATA_Z

        PUBLIC `??DataInit::?relay`
        FUNCTION `??DataInit::?relay`,0203H
        PUBLIC `??DataProcessing::?relay`
        FUNCTION `??DataProcessing::?relay`,0203H
        PUBLIC `??GenericApp_Init::?relay`
        FUNCTION `??GenericApp_Init::?relay`,0203H
        PUBLIC `??GenericApp_ProcessEvent::?relay`
        FUNCTION `??GenericApp_ProcessEvent::?relay`,0203H
        PUBLIC `??delay::?relay`
        FUNCTION `??delay::?relay`,0203H
        FUNCTION `??rxCB::?relay`,0203H
        PUBLIC AF_DataPack
        PUBLIC DataInit
        FUNCTION DataInit,0203H
        ARGFRAME XSTACK, 38, STACK
        ARGFRAME IOVERLAY, 0, STATIC
        ARGFRAME DOVERLAY, 0, STATIC
        LOCFRAME ISTACK, 2, STACK
        PUBLIC DataProcessing
        FUNCTION DataProcessing,0a1203H
        ARGFRAME XSTACK, 18, STACK
        ARGFRAME IOVERLAY, 0, STATIC
        ARGFRAME DOVERLAY, 0, STATIC
        LOCFRAME XSTACK, 12, STACK
        PUBLIC GenericApp_ClusterList
        PUBLIC GenericApp_Init
        FUNCTION GenericApp_Init,021203H
        ARGFRAME XSTACK, 0, STACK
        LOCFRAME XSTACK, 38, STACK
        PUBLIC GenericApp_ProcessEvent
        FUNCTION GenericApp_ProcessEvent,0a1203H
        ARGFRAME XSTACK, 0, STACK
        LOCFRAME XSTACK, 21, STACK
        PUBLIC GenericApp_SimpleDesc
        PUBLIC GenericApp_TaskID
        PUBLIC GenericApp_TransID
        PUBLIC GenericApp_epDesc
        PUBLIC This_password
        PUBLIC This_username
        PUBLIC UART_Buff
        PUBLIC UART_DataPack
        PUBWEAK __Constant_ffffffff
        PUBLIC cache
        PUBLIC delay
        FUNCTION delay,080203H
        ARGFRAME XSTACK, 0, STACK
        LOCFRAME XSTACK, 16, STACK
        PUBLIC reply
        FUNCTION rxCB,0a1603H
        ARGFRAME XSTACK, 0, STACK
        LOCFRAME XSTACK, 31, STACK
        
          CFI Names cfiNames0
          CFI StackFrame CFA_SP SP IDATA
          CFI StackFrame CFA_PSP16 PSP16 XDATA
          CFI StackFrame CFA_XSP16 XSP16 XDATA
          CFI StaticOverlayFrame CFA_IOVERLAY IOVERLAY
          CFI StaticOverlayFrame CFA_DOVERLAY DOVERLAY
          CFI Resource `PSW.CY`:1, `B.BR0`:1, `B.BR1`:1, `B.BR2`:1, `B.BR3`:1
          CFI Resource `B.BR4`:1, `B.BR5`:1, `B.BR6`:1, `B.BR7`:1, `VB.BR8`:1
          CFI Resource `VB.BR9`:1, `VB.BR10`:1, `VB.BR11`:1, `VB.BR12`:1
          CFI Resource `VB.BR13`:1, `VB.BR14`:1, `VB.BR15`:1, VB:8, B:8, A:8
          CFI Resource PSW:8, DPL0:8, DPH0:8, R0:8, R1:8, R2:8, R3:8, R4:8, R5:8
          CFI Resource R6:8, R7:8, V0:8, V1:8, V2:8, V3:8, V4:8, V5:8, V6:8, V7:8
          CFI Resource SP:8, PSPH:8, PSPL:8, PSP16:16, XSPH:8, XSPL:8, XSP16:16
          CFI VirtualResource ?RET:24
          CFI Resource ?BRET_EXT:8
          CFI VirtualResource ?RET_HIGH:8, ?RET_LOW:8
          CFI ResourceParts PSP16 PSPH, PSPL
          CFI ResourceParts XSP16 XSPH, XSPL
          CFI ResourceParts ?RET ?BRET_EXT, ?RET_HIGH, ?RET_LOW
          CFI EndNames cfiNames0
        
          CFI Common cfiCommon0 Using cfiNames0
          CFI CodeAlign 1
          CFI DataAlign -1
          CFI ReturnAddress ?RET CODE
          CFI CFA_DOVERLAY Used
          CFI CFA_IOVERLAY Used
          CFI CFA_SP SP+-3
          CFI CFA_PSP16 PSP16+0
          CFI CFA_XSP16 XSP16+0
          CFI `PSW.CY` SameValue
          CFI `B.BR0` SameValue
          CFI `B.BR1` SameValue
          CFI `B.BR2` SameValue
          CFI `B.BR3` SameValue
          CFI `B.BR4` SameValue
          CFI `B.BR5` SameValue
          CFI `B.BR6` SameValue
          CFI `B.BR7` SameValue
          CFI `VB.BR8` SameValue
          CFI `VB.BR9` SameValue
          CFI `VB.BR10` SameValue
          CFI `VB.BR11` SameValue
          CFI `VB.BR12` SameValue
          CFI `VB.BR13` SameValue
          CFI `VB.BR14` SameValue
          CFI `VB.BR15` SameValue
          CFI VB SameValue
          CFI B Undefined
          CFI A Undefined
          CFI PSW SameValue
          CFI DPL0 SameValue
          CFI DPH0 SameValue
          CFI R0 Undefined
          CFI R1 Undefined
          CFI R2 Undefined
          CFI R3 Undefined
          CFI R4 Undefined
          CFI R5 Undefined
          CFI R6 SameValue
          CFI R7 SameValue
          CFI V0 SameValue
          CFI V1 SameValue
          CFI V2 SameValue
          CFI V3 SameValue
          CFI V4 SameValue
          CFI V5 SameValue
          CFI V6 SameValue
          CFI V7 SameValue
          CFI PSPH Undefined
          CFI PSPL Undefined
          CFI XSPH Undefined
          CFI XSPL Undefined
          CFI ?RET Concat
          CFI ?BRET_EXT Frame(CFA_SP, 3)
          CFI ?RET_HIGH Frame(CFA_SP, 2)
          CFI ?RET_LOW Frame(CFA_SP, 1)
          CFI EndCommon cfiCommon0
        
        
          CFI Common cfiCommon1 Using cfiNames0
          CFI CodeAlign 1
          CFI DataAlign -1
          CFI ReturnAddress ?RET CODE
          CFI CFA_DOVERLAY Used
          CFI CFA_IOVERLAY Used
          CFI CFA_SP SP+-2
          CFI CFA_PSP16 PSP16+0
          CFI CFA_XSP16 XSP16+0
          CFI `PSW.CY` SameValue
          CFI `B.BR0` SameValue
          CFI `B.BR1` SameValue
          CFI `B.BR2` SameValue
          CFI `B.BR3` SameValue
          CFI `B.BR4` SameValue
          CFI `B.BR5` SameValue
          CFI `B.BR6` SameValue
          CFI `B.BR7` SameValue
          CFI `VB.BR8` SameValue
          CFI `VB.BR9` SameValue
          CFI `VB.BR10` SameValue
          CFI `VB.BR11` SameValue
          CFI `VB.BR12` SameValue
          CFI `VB.BR13` SameValue
          CFI `VB.BR14` SameValue
          CFI `VB.BR15` SameValue
          CFI VB SameValue
          CFI B SameValue
          CFI A SameValue
          CFI PSW SameValue
          CFI DPL0 SameValue
          CFI DPH0 SameValue
          CFI R0 SameValue
          CFI R1 SameValue
          CFI R2 SameValue
          CFI R3 SameValue
          CFI R4 SameValue
          CFI R5 SameValue
          CFI R6 SameValue
          CFI R7 SameValue
          CFI V0 SameValue
          CFI V1 SameValue
          CFI V2 SameValue
          CFI V3 SameValue
          CFI V4 SameValue
          CFI V5 SameValue
          CFI V6 SameValue
          CFI V7 SameValue
          CFI PSPH Undefined
          CFI PSPL Undefined
          CFI XSPH Undefined
          CFI XSPL Undefined
          CFI ?RET Concat
          CFI ?BRET_EXT SameValue
          CFI ?RET_HIGH Frame(CFA_SP, 2)
          CFI ?RET_LOW Frame(CFA_SP, 1)
          CFI EndCommon cfiCommon1
        
AF_DataRequest      SYMBOL "AF_DataRequest"
`??AF_DataRequest::?relay` SYMBOL "?relay", AF_DataRequest
HalLedBlink         SYMBOL "HalLedBlink"
`??HalLedBlink::?relay` SYMBOL "?relay", HalLedBlink
HalUARTOpen         SYMBOL "HalUARTOpen"
`??HalUARTOpen::?relay` SYMBOL "?relay", HalUARTOpen
HalUARTRead         SYMBOL "HalUARTRead"
`??HalUARTRead::?relay` SYMBOL "?relay", HalUARTRead
HalUARTWrite        SYMBOL "HalUARTWrite"
`??HalUARTWrite::?relay` SYMBOL "?relay", HalUARTWrite
afRegister          SYMBOL "afRegister"
`??afRegister::?relay` SYMBOL "?relay", afRegister
osal_memcpy         SYMBOL "osal_memcpy"
`??osal_memcpy::?relay` SYMBOL "?relay", osal_memcpy
osal_msg_deallocate SYMBOL "osal_msg_deallocate"
`??osal_msg_deallocate::?relay` SYMBOL "?relay", osal_msg_deallocate
osal_msg_receive    SYMBOL "osal_msg_receive"
`??osal_msg_receive::?relay` SYMBOL "?relay", osal_msg_receive
sprintf             SYMBOL "sprintf"
`??sprintf::?relay` SYMBOL "?relay", sprintf
DataInit            SYMBOL "DataInit"
`??DataInit::?relay` SYMBOL "?relay", DataInit
DataProcessing      SYMBOL "DataProcessing"
`??DataProcessing::?relay` SYMBOL "?relay", DataProcessing
GenericApp_Init     SYMBOL "GenericApp_Init"
`??GenericApp_Init::?relay` SYMBOL "?relay", GenericApp_Init
GenericApp_ProcessEvent SYMBOL "GenericApp_ProcessEvent"
`??GenericApp_ProcessEvent::?relay` SYMBOL "?relay", GenericApp_ProcessEvent
delay               SYMBOL "delay"
`??delay::?relay`   SYMBOL "?relay", delay

        EXTERN `??AF_DataRequest::?relay`
        FUNCTION `??AF_DataRequest::?relay`,00H
        EXTERN `??HalLedBlink::?relay`
        FUNCTION `??HalLedBlink::?relay`,00H
        EXTERN `??HalUARTOpen::?relay`
        FUNCTION `??HalUARTOpen::?relay`,00H
        EXTERN `??HalUARTRead::?relay`
        FUNCTION `??HalUARTRead::?relay`,00H
        EXTERN `??HalUARTWrite::?relay`
        FUNCTION `??HalUARTWrite::?relay`,00H
        EXTERN `??afRegister::?relay`
        FUNCTION `??afRegister::?relay`,00H
        EXTERN `??osal_memcpy::?relay`
        FUNCTION `??osal_memcpy::?relay`,00H
        EXTERN `??osal_msg_deallocate::?relay`
        FUNCTION `??osal_msg_deallocate::?relay`,00H
        EXTERN `??osal_msg_receive::?relay`
        FUNCTION `??osal_msg_receive::?relay`,00H
        EXTERN `??sprintf::?relay`
        FUNCTION `??sprintf::?relay`,00H
        EXTERN AF_DataRequest
        FUNCTION AF_DataRequest,0202H
        ARGFRAME ISTACK, 0, STACK
        ARGFRAME PSTACK, 0, STACK
        ARGFRAME XSTACK, 31, STACK
        ARGFRAME IOVERLAY, 0, STATIC
        ARGFRAME DOVERLAY, 0, STATIC
        EXTERN HalLedBlink
        FUNCTION HalLedBlink,0202H
        ARGFRAME ISTACK, 0, STACK
        ARGFRAME PSTACK, 0, STACK
        ARGFRAME XSTACK, 22, STACK
        ARGFRAME IOVERLAY, 0, STATIC
        ARGFRAME DOVERLAY, 0, STATIC
        EXTERN HalUARTOpen
        FUNCTION HalUARTOpen,0202H
        ARGFRAME ISTACK, 0, STACK
        ARGFRAME PSTACK, 0, STACK
        ARGFRAME XSTACK, 38, STACK
        ARGFRAME IOVERLAY, 0, STATIC
        ARGFRAME DOVERLAY, 0, STATIC
        EXTERN HalUARTRead
        FUNCTION HalUARTRead,0202H
        ARGFRAME ISTACK, 0, STACK
        ARGFRAME PSTACK, 0, STACK
        ARGFRAME XSTACK, 22, STACK
        ARGFRAME IOVERLAY, 0, STATIC
        ARGFRAME DOVERLAY, 0, STATIC
        EXTERN HalUARTWrite
        FUNCTION HalUARTWrite,0202H
        ARGFRAME ISTACK, 0, STACK
        ARGFRAME PSTACK, 0, STACK
        ARGFRAME XSTACK, 18, STACK
        ARGFRAME IOVERLAY, 0, STATIC
        ARGFRAME DOVERLAY, 0, STATIC
        EXTERN afRegister
        FUNCTION afRegister,0202H
        ARGFRAME ISTACK, 0, STACK
        ARGFRAME PSTACK, 0, STACK
        ARGFRAME XSTACK, 38, STACK
        ARGFRAME IOVERLAY, 0, STATIC
        ARGFRAME DOVERLAY, 0, STATIC
        EXTERN osal_memcpy
        FUNCTION osal_memcpy,0202H
        ARGFRAME ISTACK, 0, STACK
        ARGFRAME PSTACK, 0, STACK
        ARGFRAME XSTACK, 21, STACK
        ARGFRAME IOVERLAY, 0, STATIC
        ARGFRAME DOVERLAY, 0, STATIC
        EXTERN osal_msg_deallocate
        FUNCTION osal_msg_deallocate,0202H
        ARGFRAME ISTACK, 0, STACK
        ARGFRAME PSTACK, 0, STACK
        ARGFRAME XSTACK, 18, STACK
        ARGFRAME IOVERLAY, 0, STATIC
        ARGFRAME DOVERLAY, 0, STATIC
        EXTERN osal_msg_receive
        FUNCTION osal_msg_receive,0202H
        ARGFRAME ISTACK, 0, STACK
        ARGFRAME PSTACK, 0, STACK
        ARGFRAME XSTACK, 18, STACK
        ARGFRAME IOVERLAY, 0, STATIC
        ARGFRAME DOVERLAY, 0, STATIC
        EXTERN sprintf
        FUNCTION sprintf,0202H
        ARGFRAME ISTACK, 0, STACK
        ARGFRAME PSTACK, 0, STACK
        ARGFRAME XSTACK, 12, STACK
        ARGFRAME IOVERLAY, 0, STATIC
        ARGFRAME DOVERLAY, 0, STATIC

// D:\ZStack-CC2530-2.5.1a\Projects\zstack\Samples\GenericApp\CC2530DB\Coordinator.c
//    1 #include "OSAL.h"
//    2 #include "AF.h"
//    3 #include "ZDApp.h"
//    4 #include "ZDObject.h"
//    5 #include "ZDProfile.h"
//    6 #include <string.h>
//    7 #include "Coordinator.h"
//    8 #include "DebugTrace.h"
//    9 #include <stdio.h>
//   10 
//   11 #if !defined( WIN32 )
//   12   #include "OnBoard.h"
//   13 #endif
//   14 
//   15 /* HAL */
//   16 #include "hal_lcd.h"
//   17 #include "hal_led.h"
//   18 #include "hal_key.h"
//   19 #include "hal_uart.h"
//   20 
//   21 #define SEND_TO_ALL_EVENT       0X01
//   22 #define UART_TX_EVENT          0X0001
//   23 
//   24 

        RSEG XDATA_ROM_C:CONST:REORDER:NOROOT(0)
        DATA16
//   25 const cId_t GenericApp_ClusterList[GENERICAPP_MAX_CLUSTERS] =
GenericApp_ClusterList:
        DW 1
//   26 {
//   27   GENERICAPP_CLUSTERID
//   28 };
//   29 

        RSEG XDATA_ROM_C:CONST:REORDER:NOROOT(0)
        DATA8
//   30 const SimpleDescriptionFormat_t GenericApp_SimpleDesc =
GenericApp_SimpleDesc:
        DB 10
        DATA16
        DW 3844
        DW 1
        DATA8
        DB 0
        DB 1
        DATA16
        DW GenericApp_ClusterList
        DATA8
        DB 0
        DATA16
        DW 0H
//   31 {
//   32   GENERICAPP_ENDPOINT,              //  int Endpoint;
//   33   GENERICAPP_PROFID,                //  uint16 AppProfId[2];
//   34   GENERICAPP_DEVICEID,              //  uint16 AppDeviceId[2];
//   35   GENERICAPP_DEVICE_VERSION,        //  int   AppDevVer:4;
//   36   GENERICAPP_FLAGS,                 //  int   AppFlags:4;
//   37   GENERICAPP_MAX_CLUSTERS,          //  byte  AppNumInClusters;
//   38   (cId_t *)GenericApp_ClusterList,  //  byte *pAppInClusterList;
//   39   0,
//   40   (cId_t *)NULL
//   41 };
//   42 
//   43   
//   44 typedef struct DataPack
//   45 {
//   46  //unsigned char username[5];                     //用户名：Maker 
//   47  //unsigned char password[6];                     //密码：116114
//   48  unsigned char LightStatus;
//   49  unsigned char CurtainStatus;                    //窗帘设置四档  1 2 3 4 
//   50  //unsigned char AirConditioning[3];                  //空调开关及调温
//   51  unsigned char DrinkingFountainStatus;
//   52  unsigned char endl; 
//   53 }DataPack;
//   54 

        RSEG XDATA_Z:XDATA:NOROOT(0)
        DATA8
//   55 char UART_Buff[16];
UART_Buff:
        DS 16
        REQUIRE __INIT_XDATA_Z
//   56 

        RSEG XDATA_Z:XDATA:NOROOT(0)
        DATA8
//   57 endPointDesc_t GenericApp_epDesc;
GenericApp_epDesc:
        DS 6
        REQUIRE __INIT_XDATA_Z

        RSEG XDATA_Z:XDATA:NOROOT(0)
        DATA8
//   58 byte GenericApp_TaskID; 
GenericApp_TaskID:
        DS 1
        REQUIRE __INIT_XDATA_Z

        RSEG XDATA_Z:XDATA:NOROOT(0)
        DATA8
//   59 byte GenericApp_TransID;
GenericApp_TransID:
        DS 1
        REQUIRE __INIT_XDATA_Z
//   60 

        RSEG XDATA_Z:XDATA:NOROOT(0)
        DATA16
//   61 unsigned char *reply;
reply:
        DS 2
        REQUIRE __INIT_XDATA_Z
//   62 void GenericApp_MessageMSGCB( afIncomingMSGPacket_t *pckt );
//   63 void GenericApp_SendTheMessage(void);
//   64 void delay(long);
//   65 static void rxCB(uint8 port,uint8 event);
//   66 void DataProcessing(unsigned char AF_Data[4]);
//   67 void DataInit(void);
//   68 /***用户自定义变(常)量区***/

        RSEG XDATA_Z:XDATA:NOROOT(0)
        DATA8
//   69 unsigned char cache[128];
cache:
        DS 128
        REQUIRE __INIT_XDATA_Z

        RSEG XDATA_I:XDATA:NOROOT(0)
//   70 unsigned char AF_DataPack[7] = "000000";
AF_DataPack:
        DATA8
        DS 7
        REQUIRE `?<Initializer for AF_DataPack>`
        REQUIRE __INIT_XDATA_I

        RSEG XDATA_Z:XDATA:NOROOT(0)
        DATA32
//   71 DataPack UART_DataPack;
UART_DataPack:
        DS 4
        REQUIRE __INIT_XDATA_Z

        RSEG XDATA_I:XDATA:NOROOT(0)
//   72 char This_username[] = "Maker";
This_username:
        DATA8
        DS 6
        REQUIRE `?<Initializer for This_username>`
        REQUIRE __INIT_XDATA_I

        RSEG XDATA_I:XDATA:NOROOT(0)
//   73 char This_password[] = "116114";
This_password:
        DATA8
        DS 7
        REQUIRE `?<Initializer for This_password>`
        REQUIRE __INIT_XDATA_I
//   74 
//   75 /**************************/
//   76 

        RSEG BANKED_CODE:HUGECODE:NOROOT(0)
//   77 void GenericApp_Init(byte task_id)
GenericApp_Init:
          CFI Block cfiBlock0 Using cfiCommon0
          CFI Function GenericApp_Init
        CODE
//   78 {
        FUNCALL GenericApp_Init, afRegister
        LOCFRAME ISTACK, 0, STACK
        LOCFRAME PSTACK, 0, STACK
        LOCFRAME XSTACK, 38, STACK
        LOCFRAME IOVERLAY, 0, STATIC
        LOCFRAME DOVERLAY, 0, STATIC
        ARGFRAME ISTACK, 0, STACK
        ARGFRAME PSTACK, 0, STACK
        ARGFRAME XSTACK, 38, STACK
        ARGFRAME IOVERLAY, 0, STATIC
        ARGFRAME DOVERLAY, 0, STATIC
        FUNCALL GenericApp_Init, DataInit
        LOCFRAME ISTACK, 0, STACK
        LOCFRAME PSTACK, 0, STACK
        LOCFRAME XSTACK, 38, STACK
        LOCFRAME IOVERLAY, 0, STATIC
        LOCFRAME DOVERLAY, 0, STATIC
        ARGFRAME ISTACK, 0, STACK
        ARGFRAME PSTACK, 0, STACK
        ARGFRAME XSTACK, 38, STACK
        ARGFRAME IOVERLAY, 0, STATIC
        ARGFRAME DOVERLAY, 0, STATIC
        FUNCALL GenericApp_Init, HalUARTOpen
        LOCFRAME ISTACK, 0, STACK
        LOCFRAME PSTACK, 0, STACK
        LOCFRAME XSTACK, 38, STACK
        LOCFRAME IOVERLAY, 0, STATIC
        LOCFRAME DOVERLAY, 0, STATIC
        ARGFRAME ISTACK, 0, STACK
        ARGFRAME PSTACK, 0, STACK
        ARGFRAME XSTACK, 38, STACK
        ARGFRAME IOVERLAY, 0, STATIC
        ARGFRAME DOVERLAY, 0, STATIC
        MOV       A,#-0x9
        LCALL     ?BANKED_ENTER_XDATA
          CFI DPH0 load(1, XDATA, add(CFA_XSP16, literal(-1)))
          CFI DPL0 load(1, XDATA, add(CFA_XSP16, literal(-2)))
          CFI ?BRET_EXT load(1, XDATA, add(CFA_XSP16, literal(-3)))
          CFI ?RET_HIGH load(1, XDATA, add(CFA_XSP16, literal(-4)))
          CFI ?RET_LOW load(1, XDATA, add(CFA_XSP16, literal(-5)))
          CFI R7 load(1, XDATA, add(CFA_XSP16, literal(-6)))
          CFI V0 load(1, XDATA, add(CFA_XSP16, literal(-7)))
          CFI VB load(1, XDATA, add(CFA_XSP16, literal(-8)))
          CFI R6 load(1, XDATA, add(CFA_XSP16, literal(-9)))
          CFI CFA_SP SP+0
          CFI CFA_XSP16 add(XSP16, 9)
        ; Saved register size: 9
        ; Auto size: 29
        MOV       A,#-0x1d
        LCALL     ?ALLOC_XSTACK8
          CFI CFA_XSP16 add(XSP16, 38)
        MOV       A,R1
//   79   halUARTCfg_t uartConfig;             //串口配置 halUARTCfg_t 为结构体
//   80   GenericApp_TaskID             = task_id;
        MOV       DPTR,#GenericApp_TaskID
        MOVX      @DPTR,A
//   81   GenericApp_TransID            = 0;
        MOV       DPTR,#GenericApp_TransID
        CLR       A
        MOVX      @DPTR,A
//   82   GenericApp_epDesc.endPoint    = GENERICAPP_ENDPOINT;
        MOV       DPTR,#GenericApp_epDesc
        MOV       A,#0xa
        MOVX      @DPTR,A
//   83   GenericApp_epDesc.task_id     = &GenericApp_TaskID;
        INC       DPTR
        MOV       A,#GenericApp_TaskID & 0xff
        MOVX      @DPTR,A
        INC       DPTR
        MOV       A,#(GenericApp_TaskID >> 8) & 0xff
        MOVX      @DPTR,A
//   84   GenericApp_epDesc.simpleDesc  = 
//   85         (SimpleDescriptionFormat_t *)&GenericApp_SimpleDesc;
        INC       DPTR
        MOV       A,#GenericApp_SimpleDesc & 0xff
        MOVX      @DPTR,A
        INC       DPTR
        MOV       A,#(GenericApp_SimpleDesc >> 8) & 0xff
        MOVX      @DPTR,A
//   86   GenericApp_epDesc.latencyReq  = noLatencyReqs;
        INC       DPTR
        CLR       A
        MOVX      @DPTR,A
//   87   afRegister(&GenericApp_epDesc);
        ; Setup parameters for call to function afRegister
        MOV       R2,#GenericApp_epDesc & 0xff
        MOV       R3,#(GenericApp_epDesc >> 8) & 0xff
        LCALL     `??afRegister::?relay`; Banked call to: afRegister
//   88   
//   89   DataInit();
        ; Setup parameters for call to function DataInit
        LCALL     `??DataInit::?relay`; Banked call to: DataInit
//   90   
//   91   uartConfig.configured         = TRUE;
        MOV       DPL,?XSP + 0
        MOV       DPH,?XSP + 1
        MOV       A,#0x1
        MOVX      @DPTR,A
//   92   uartConfig.baudRate           = HAL_UART_BR_115200;
        LCALL     ?XSTACK_DISP0_8
        MOV       A,#0x4
        MOVX      @DPTR,A
//   93   uartConfig.flowControl        = FALSE;
        MOV       A,#0x2
        LCALL     ?XSTACK_DISP0_8
        CLR       A
        MOVX      @DPTR,A
//   94   uartConfig.callBackFunc       = rxCB;
        MOV       A,#0x1b
        LCALL     ?XSTACK_DISP0_8
        MOV       A,#`??rxCB::?relay` & 0xff
        MOVX      @DPTR,A
        INC       DPTR
        MOV       A,#(`??rxCB::?relay` >> 8) & 0xff
        MOVX      @DPTR,A
//   95   HalUARTOpen (0,&uartConfig);
        ; Setup parameters for call to function HalUARTOpen
        MOV       R2,?XSP + 0
        MOV       R3,?XSP + 1
        MOV       R1,#0x0
        LCALL     `??HalUARTOpen::?relay`; Banked call to: HalUARTOpen
//   96 }
        MOV       A,#0x1d
        LCALL     ?DEALLOC_XSTACK8
          CFI CFA_XSP16 add(XSP16, 9)
        MOV       R7,#0x1
        LJMP      ?BANKED_LEAVE_XDATA
          CFI EndBlock cfiBlock0
//   97 

        RSEG BANKED_CODE:HUGECODE:NOROOT(0)
//   98 void DataInit(void)
DataInit:
          CFI Block cfiBlock1 Using cfiCommon0
          CFI Function DataInit
        CODE
//   99 {
        PUSH      DPL
          CFI DPL0 Frame(CFA_SP, 4)
          CFI CFA_SP SP+-4
        PUSH      DPH
          CFI DPH0 Frame(CFA_SP, 5)
          CFI CFA_SP SP+-5
        ; Saved register size: 2
        ; Auto size: 0
//  100 
//  101   UART_DataPack.LightStatus = '0';
        MOV       DPTR,#UART_DataPack
        MOV       A,#0x30
        MOVX      @DPTR,A
//  102   UART_DataPack.CurtainStatus = '0';
        INC       DPTR
        MOVX      @DPTR,A
//  103   UART_DataPack.DrinkingFountainStatus = '0';
        INC       DPTR
        MOVX      @DPTR,A
//  104   //UART_DataPack.AirConditioning[0] = '0';
//  105   //UART_DataPack.AirConditioning[1] = '0';
//  106   //UART_DataPack.AirConditioning[2] = '0';
//  107   UART_DataPack.endl = 'b';
        INC       DPTR
        MOV       A,#0x62
        MOVX      @DPTR,A
//  108 }
        POP       DPH
          CFI DPH0 SameValue
          CFI CFA_SP SP+-4
        POP       DPL
          CFI DPL0 SameValue
          CFI CFA_SP SP+-3
        LJMP      ?BRET
          CFI EndBlock cfiBlock1
//  109 

        RSEG BANKED_CODE:HUGECODE:NOROOT(0)
//  110 UINT16 GenericApp_ProcessEvent( uint8 task_id, uint16 events )
GenericApp_ProcessEvent:
          CFI Block cfiBlock2 Using cfiCommon0
          CFI Function GenericApp_ProcessEvent
        CODE
//  111 {
        FUNCALL GenericApp_ProcessEvent, osal_msg_receive
        LOCFRAME ISTACK, 0, STACK
        LOCFRAME PSTACK, 0, STACK
        LOCFRAME XSTACK, 18, STACK
        LOCFRAME IOVERLAY, 0, STATIC
        LOCFRAME DOVERLAY, 0, STATIC
        ARGFRAME ISTACK, 0, STACK
        ARGFRAME PSTACK, 0, STACK
        ARGFRAME XSTACK, 18, STACK
        ARGFRAME IOVERLAY, 0, STATIC
        ARGFRAME DOVERLAY, 0, STATIC
        FUNCALL GenericApp_ProcessEvent, osal_memcpy
        LOCFRAME ISTACK, 0, STACK
        LOCFRAME PSTACK, 0, STACK
        LOCFRAME XSTACK, 21, STACK
        LOCFRAME IOVERLAY, 0, STATIC
        LOCFRAME DOVERLAY, 0, STATIC
        ARGFRAME ISTACK, 0, STACK
        ARGFRAME PSTACK, 0, STACK
        ARGFRAME XSTACK, 21, STACK
        ARGFRAME IOVERLAY, 0, STATIC
        ARGFRAME DOVERLAY, 0, STATIC
        FUNCALL GenericApp_ProcessEvent, DataProcessing
        LOCFRAME ISTACK, 0, STACK
        LOCFRAME PSTACK, 0, STACK
        LOCFRAME XSTACK, 18, STACK
        LOCFRAME IOVERLAY, 0, STATIC
        LOCFRAME DOVERLAY, 0, STATIC
        ARGFRAME ISTACK, 0, STACK
        ARGFRAME PSTACK, 0, STACK
        ARGFRAME XSTACK, 18, STACK
        ARGFRAME IOVERLAY, 0, STATIC
        ARGFRAME DOVERLAY, 0, STATIC
        FUNCALL GenericApp_ProcessEvent, HalUARTWrite
        LOCFRAME ISTACK, 0, STACK
        LOCFRAME PSTACK, 0, STACK
        LOCFRAME XSTACK, 18, STACK
        LOCFRAME IOVERLAY, 0, STATIC
        LOCFRAME DOVERLAY, 0, STATIC
        ARGFRAME ISTACK, 0, STACK
        ARGFRAME PSTACK, 0, STACK
        ARGFRAME XSTACK, 18, STACK
        ARGFRAME IOVERLAY, 0, STATIC
        ARGFRAME DOVERLAY, 0, STATIC
        FUNCALL GenericApp_ProcessEvent, osal_msg_deallocate
        LOCFRAME ISTACK, 0, STACK
        LOCFRAME PSTACK, 0, STACK
        LOCFRAME XSTACK, 18, STACK
        LOCFRAME IOVERLAY, 0, STATIC
        LOCFRAME DOVERLAY, 0, STATIC
        ARGFRAME ISTACK, 0, STACK
        ARGFRAME PSTACK, 0, STACK
        ARGFRAME XSTACK, 18, STACK
        ARGFRAME IOVERLAY, 0, STATIC
        ARGFRAME DOVERLAY, 0, STATIC
        FUNCALL GenericApp_ProcessEvent, osal_msg_receive
        LOCFRAME ISTACK, 0, STACK
        LOCFRAME PSTACK, 0, STACK
        LOCFRAME XSTACK, 18, STACK
        LOCFRAME IOVERLAY, 0, STATIC
        LOCFRAME DOVERLAY, 0, STATIC
        ARGFRAME ISTACK, 0, STACK
        ARGFRAME PSTACK, 0, STACK
        ARGFRAME XSTACK, 18, STACK
        ARGFRAME IOVERLAY, 0, STATIC
        ARGFRAME DOVERLAY, 0, STATIC
        REQUIRE ?V0
        REQUIRE ?V1
        REQUIRE ?V2
        REQUIRE ?V4
        REQUIRE ?V5
        MOV       A,#-0xe
        LCALL     ?BANKED_ENTER_XDATA
          CFI DPH0 load(1, XDATA, add(CFA_XSP16, literal(-1)))
          CFI DPL0 load(1, XDATA, add(CFA_XSP16, literal(-2)))
          CFI ?BRET_EXT load(1, XDATA, add(CFA_XSP16, literal(-3)))
          CFI ?RET_HIGH load(1, XDATA, add(CFA_XSP16, literal(-4)))
          CFI ?RET_LOW load(1, XDATA, add(CFA_XSP16, literal(-5)))
          CFI R7 load(1, XDATA, add(CFA_XSP16, literal(-6)))
          CFI V5 load(1, XDATA, add(CFA_XSP16, literal(-7)))
          CFI V4 load(1, XDATA, add(CFA_XSP16, literal(-8)))
          CFI V3 load(1, XDATA, add(CFA_XSP16, literal(-9)))
          CFI V2 load(1, XDATA, add(CFA_XSP16, literal(-10)))
          CFI V1 load(1, XDATA, add(CFA_XSP16, literal(-11)))
          CFI V0 load(1, XDATA, add(CFA_XSP16, literal(-12)))
          CFI VB load(1, XDATA, add(CFA_XSP16, literal(-13)))
          CFI R6 load(1, XDATA, add(CFA_XSP16, literal(-14)))
          CFI CFA_SP SP+0
          CFI CFA_XSP16 add(XSP16, 14)
        ; Saved register size: 14
        ; Auto size: 4
        MOV       A,#-0x4
        LCALL     ?ALLOC_XSTACK8
          CFI CFA_XSP16 add(XSP16, 18)
        MOV       ?V4,R2
        MOV       ?V5,R3
//  112   afIncomingMSGPacket_t *MSGpkt;
//  113   if ( events & SYS_EVENT_MSG )
        MOV       A,R3
        ANL       A,#0x80
        JZ        ??GenericApp_ProcessEvent_0
//  114   {
//  115     MSGpkt = (afIncomingMSGPacket_t *)osal_msg_receive( GenericApp_TaskID );
        ; Setup parameters for call to function osal_msg_receive
        SJMP      ??GenericApp_ProcessEvent_1
//  116     while ( MSGpkt )
//  117     {
//  118       switch ( MSGpkt->hdr.event )
??GenericApp_ProcessEvent_2:
        MOV       DPL,R6
        MOV       DPH,R7
        MOVX      A,@DPTR
        XRL       A,#0x1a
        JNZ       ??GenericApp_ProcessEvent_3
//  119       {
//  120         case AF_INCOMING_MSG_CMD:
//  121           GenericApp_MessageMSGCB( MSGpkt );
        INC       DPTR
        INC       DPTR
        INC       DPTR
        INC       DPTR
        MOVX      A,@DPTR
        XRL       A,#0x1
        JNZ       ??GenericApp_ProcessEvent_4
        INC       DPTR
        MOVX      A,@DPTR
??GenericApp_ProcessEvent_4:
        JNZ       ??GenericApp_ProcessEvent_3
        ; Setup parameters for call to function osal_memcpy
        MOV       A,R6
        ADD       A,#0x22
        MOV       DPL,A
        CLR       A
        ADDC      A,R7
        MOV       DPH,A
        MOVX      A,@DPTR
        MOV       ?V0,A
        INC       DPTR
        MOVX      A,@DPTR
        MOV       ?V1,A
        MOV       ?V2,#0x0
        MOV       R0,#?V0
        LCALL     ?PUSH_XSTACK_I_THREE
          CFI CFA_XSP16 add(XSP16, 21)
        MOV       R4,#0x4
        MOV       R5,#0x0
        MOV       A,#0x3
        LCALL     ?XSTACK_DISP101_8
        LCALL     `??osal_memcpy::?relay`; Banked call to: osal_memcpy
        MOV       A,#0x3
        LCALL     ?DEALLOC_XSTACK8
          CFI CFA_XSP16 add(XSP16, 18)
        ; Setup parameters for call to function DataProcessing
        MOV       R2,?XSP + 0
        MOV       R3,?XSP + 1
        LCALL     `??DataProcessing::?relay`; Banked call to: DataProcessing
        ; Setup parameters for call to function HalUARTWrite
        MOV       R4,#0x10
        MOV       R5,#0x0
        MOV       R2,#UART_Buff & 0xff
        MOV       R3,#(UART_Buff >> 8) & 0xff
        MOV       R1,#0x0
        LCALL     `??HalUARTWrite::?relay`; Banked call to: HalUARTWrite
//  122           break;
//  123         default: 
//  124           break;
//  125       }
//  126 
//  127       // Release the memory
//  128       osal_msg_deallocate( (uint8 *)MSGpkt );
??GenericApp_ProcessEvent_3:
        ; Setup parameters for call to function osal_msg_deallocate
        MOV       A,R6
        MOV       R2,A
        MOV       A,R7
        MOV       R3,A
        LCALL     `??osal_msg_deallocate::?relay`; Banked call to: osal_msg_deallocate
//  129 
//  130       // Next
//  131       MSGpkt = (afIncomingMSGPacket_t *)osal_msg_receive( GenericApp_TaskID );
        ; Setup parameters for call to function osal_msg_receive
??GenericApp_ProcessEvent_1:
        MOV       DPTR,#GenericApp_TaskID
        MOVX      A,@DPTR
        MOV       R1,A
        LCALL     `??osal_msg_receive::?relay`; Banked call to: osal_msg_receive
        MOV       ?V0,R2
        MOV       ?V1,R3
        MOV       R6,?V0
        MOV       R7,?V1
//  132     }
        MOV       A,R6
        ORL       A,R7
        JNZ       ??GenericApp_ProcessEvent_2
//  133 
//  134     // return unprocessed events
//  135     return (events ^ SYS_EVENT_MSG);
        MOV       R2,?V4
        MOV       A,?V5
        XRL       A,#0x80
        MOV       R3,A
        SJMP      ??GenericApp_ProcessEvent_5
//  136   }
//  137  
//  138 
//  139   // Discard unknown events
//  140   return 0;
??GenericApp_ProcessEvent_0:
        MOV       R2,#0x0
        MOV       R3,#0x0
??GenericApp_ProcessEvent_5:
        MOV       A,#0x4
        LCALL     ?DEALLOC_XSTACK8
          CFI CFA_XSP16 add(XSP16, 14)
        MOV       R7,#0x6
        LJMP      ?BANKED_LEAVE_XDATA
//  141 }
          CFI EndBlock cfiBlock2
//  142 
//  143 
//  144 
//  145 static void GenericApp_MessageMSGCB( afIncomingMSGPacket_t *pkt )
//  146 {
//  147   unsigned char AF_Data[4];
//  148   switch  (pkt -> clusterId)
//  149   {
//  150   case GENERICAPP_CLUSTERID:
//  151     osal_memcpy(&AF_Data,pkt->cmd.Data,sizeof(AF_Data));
//  152     DataProcessing(AF_Data); 
//  153     HalUARTWrite(0,(uint8*)&UART_Buff,sizeof(UART_Buff));
//  154    // delay(40000);
//  155    // osal_start48_timerEx(GenericApp_TaskID,UART_RX_CB_EVT,1000);
//  156     
//  157     break;
//  158   }
//  159 /*
//  160     
//  161   switch ( pkt->clusterId )
//  162   {
//  163     case GENERICAPP_CLUSTERID:
//  164       osal_memcpy(&temperature,pkt->cmd.Data,sizeof(temperature));
//  165       HalUARTWrite(0,(uint8*)&temperature,sizeof(temperature)-1);
//  166     break;
//  167   }*/
//  168 }
//  169 

        RSEG BANKED_CODE:HUGECODE:NOROOT(0)
//  170 void DataProcessing(unsigned char AF_Data[4])                //对终端节点传来的数据进行处理
DataProcessing:
          CFI Block cfiBlock3 Using cfiCommon0
          CFI Function DataProcessing
        CODE
//  171 {
        FUNCALL DataProcessing, sprintf
        LOCFRAME ISTACK, 0, STACK
        LOCFRAME PSTACK, 0, STACK
        LOCFRAME XSTACK, 12, STACK
        LOCFRAME IOVERLAY, 0, STATIC
        LOCFRAME DOVERLAY, 0, STATIC
        ARGFRAME ISTACK, 0, STACK
        ARGFRAME PSTACK, 0, STACK
        ARGFRAME XSTACK, 12, STACK
        ARGFRAME IOVERLAY, 0, STATIC
        ARGFRAME DOVERLAY, 0, STATIC
        FUNCALL DataProcessing, sprintf
        LOCFRAME ISTACK, 0, STACK
        LOCFRAME PSTACK, 0, STACK
        LOCFRAME XSTACK, 12, STACK
        LOCFRAME IOVERLAY, 0, STATIC
        LOCFRAME DOVERLAY, 0, STATIC
        ARGFRAME ISTACK, 0, STACK
        ARGFRAME PSTACK, 0, STACK
        ARGFRAME XSTACK, 12, STACK
        ARGFRAME IOVERLAY, 0, STATIC
        ARGFRAME DOVERLAY, 0, STATIC
        FUNCALL DataProcessing, sprintf
        LOCFRAME ISTACK, 0, STACK
        LOCFRAME PSTACK, 0, STACK
        LOCFRAME XSTACK, 12, STACK
        LOCFRAME IOVERLAY, 0, STATIC
        LOCFRAME DOVERLAY, 0, STATIC
        ARGFRAME ISTACK, 0, STACK
        ARGFRAME PSTACK, 0, STACK
        ARGFRAME XSTACK, 12, STACK
        ARGFRAME IOVERLAY, 0, STATIC
        ARGFRAME DOVERLAY, 0, STATIC
        REQUIRE ?V0
        REQUIRE ?V1
        MOV       A,#-0xa
        LCALL     ?BANKED_ENTER_XDATA
          CFI DPH0 load(1, XDATA, add(CFA_XSP16, literal(-1)))
          CFI DPL0 load(1, XDATA, add(CFA_XSP16, literal(-2)))
          CFI ?BRET_EXT load(1, XDATA, add(CFA_XSP16, literal(-3)))
          CFI ?RET_HIGH load(1, XDATA, add(CFA_XSP16, literal(-4)))
          CFI ?RET_LOW load(1, XDATA, add(CFA_XSP16, literal(-5)))
          CFI R7 load(1, XDATA, add(CFA_XSP16, literal(-6)))
          CFI V1 load(1, XDATA, add(CFA_XSP16, literal(-7)))
          CFI V0 load(1, XDATA, add(CFA_XSP16, literal(-8)))
          CFI VB load(1, XDATA, add(CFA_XSP16, literal(-9)))
          CFI R6 load(1, XDATA, add(CFA_XSP16, literal(-10)))
          CFI CFA_SP SP+0
          CFI CFA_XSP16 add(XSP16, 10)
        ; Saved register size: 10
        ; Auto size: 0
        MOV       A,R2
        MOV       R6,A
        MOV       A,R3
        MOV       R7,A
//  172   if(AF_Data[0] == '1')
        MOV       DPL,R2
        MOV       DPH,A
        MOVX      A,@DPTR
        XRL       A,#0x31
        JNZ       ??DataProcessing_0
//  173   {
//  174     UART_DataPack.LightStatus = AF_Data[1];
        INC       DPTR
        MOVX      A,@DPTR
        MOV       DPTR,#UART_DataPack
        LCALL     ?Subroutine1 & 0xFFFF
//  175     sprintf(UART_Buff,"$Light,%c,0b",UART_DataPack.LightStatus);
//  176   }
??CrossCallReturnLabel_0:
        LCALL     ?PUSH_XSTACK_I_TWO
          CFI CFA_XSP16 add(XSP16, 12)
        MOV       R4,#`?<Constant "$Light,%c,0b">` & 0xff
        MOV       R5,#(`?<Constant "$Light,%c,0b">` >> 8) & 0xff
        MOV       R2,#UART_Buff & 0xff
        MOV       R3,#(UART_Buff >> 8) & 0xff
        LCALL     `??sprintf::?relay`; Banked call to: sprintf
        MOV       A,#0x2
        LCALL     ?DEALLOC_XSTACK8
          CFI CFA_XSP16 add(XSP16, 10)
//  177   if(AF_Data[0] == '2')
??DataProcessing_0:
        MOV       DPL,R6
        MOV       DPH,R7
        MOVX      A,@DPTR
        XRL       A,#0x32
        JNZ       ??DataProcessing_1
//  178   {
//  179     UART_DataPack.CurtainStatus = AF_Data[1];
        INC       DPTR
        MOVX      A,@DPTR
        MOV       DPTR,#UART_DataPack + 1
        LCALL     ?Subroutine1 & 0xFFFF
//  180     sprintf(UART_Buff,"$Curtain,%c,0b",UART_DataPack.CurtainStatus);
//  181   }
??CrossCallReturnLabel_1:
        LCALL     ?PUSH_XSTACK_I_TWO
          CFI CFA_XSP16 add(XSP16, 12)
        MOV       R4,#`?<Constant "$Curtain,%c,0b">` & 0xff
        MOV       R5,#(`?<Constant "$Curtain,%c,0b">` >> 8) & 0xff
        MOV       R2,#UART_Buff & 0xff
        MOV       R3,#(UART_Buff >> 8) & 0xff
        LCALL     `??sprintf::?relay`; Banked call to: sprintf
        MOV       A,#0x2
        LCALL     ?DEALLOC_XSTACK8
          CFI CFA_XSP16 add(XSP16, 10)
//  182 //  if(AF_Data[0] == '3')
//  183 //  {
//  184 //    UART_DataPack.AirConditioning[0] = AF_Data[1];
//  185 //    UART_DataPack.AirConditioning[1] = AF_Data[2];
//  186 //    UART_DataPack.AirConditioning[2] = AF_Data[3];
//  187 //  }
//  188   if(AF_Data[0] == '4')
??DataProcessing_1:
        MOV       DPL,R6
        MOV       DPH,R7
        MOVX      A,@DPTR
        XRL       A,#0x34
        JNZ       ??DataProcessing_2
//  189   {
//  190     UART_DataPack.DrinkingFountainStatus = AF_Data[1];
        INC       DPTR
        MOVX      A,@DPTR
        MOV       DPTR,#UART_DataPack + 2
        LCALL     ?Subroutine1 & 0xFFFF
//  191     sprintf(UART_Buff,"$Drinking,%c,0b",UART_DataPack.DrinkingFountainStatus);
//  192   }
??CrossCallReturnLabel_2:
        LCALL     ?PUSH_XSTACK_I_TWO
          CFI CFA_XSP16 add(XSP16, 12)
        MOV       R4,#`?<Constant "$Drinking,%c,0b">` & 0xff
        MOV       R5,#(`?<Constant "$Drinking,%c,0b">` >> 8) & 0xff
        MOV       R2,#UART_Buff & 0xff
        MOV       R3,#(UART_Buff >> 8) & 0xff
        LCALL     `??sprintf::?relay`; Banked call to: sprintf
        MOV       A,#0x2
        LCALL     ?DEALLOC_XSTACK8
          CFI CFA_XSP16 add(XSP16, 10)
//  193 }
??DataProcessing_2:
          CFI EndBlock cfiBlock3
        REQUIRE ?Subroutine0
        ; // Fall through to label ?Subroutine0

        RSEG BANKED_CODE:HUGECODE:NOROOT(0)
?Subroutine0:
          CFI Block cfiBlock4 Using cfiCommon0
          CFI NoFunction
          CFI CFA_SP SP+0
          CFI CFA_XSP16 add(XSP16, 10)
          CFI VB load(1, XDATA, add(CFA_XSP16, literal(-9)))
          CFI DPL0 load(1, XDATA, add(CFA_XSP16, literal(-2)))
          CFI DPH0 load(1, XDATA, add(CFA_XSP16, literal(-1)))
          CFI R6 load(1, XDATA, add(CFA_XSP16, literal(-10)))
          CFI R7 load(1, XDATA, add(CFA_XSP16, literal(-6)))
          CFI V0 load(1, XDATA, add(CFA_XSP16, literal(-8)))
          CFI V1 load(1, XDATA, add(CFA_XSP16, literal(-7)))
          CFI ?BRET_EXT load(1, XDATA, add(CFA_XSP16, literal(-3)))
          CFI ?RET_HIGH load(1, XDATA, add(CFA_XSP16, literal(-4)))
          CFI ?RET_LOW load(1, XDATA, add(CFA_XSP16, literal(-5)))
        MOV       R7,#0x2
        LJMP      ?BANKED_LEAVE_XDATA
          CFI EndBlock cfiBlock4

        RSEG BANKED_CODE:HUGECODE:NOROOT(0)
?Subroutine1:
          CFI Block cfiCond5 Using cfiCommon0
          CFI Function DataProcessing
          CFI Conditional ??CrossCallReturnLabel_0
          CFI R6 load(1, XDATA, add(CFA_XSP16, literal(-10)))
          CFI VB load(1, XDATA, add(CFA_XSP16, literal(-9)))
          CFI V0 load(1, XDATA, add(CFA_XSP16, literal(-8)))
          CFI V1 load(1, XDATA, add(CFA_XSP16, literal(-7)))
          CFI R7 load(1, XDATA, add(CFA_XSP16, literal(-6)))
          CFI ?RET_LOW load(1, XDATA, add(CFA_XSP16, literal(-5)))
          CFI ?RET_HIGH load(1, XDATA, add(CFA_XSP16, literal(-4)))
          CFI ?BRET_EXT load(1, XDATA, add(CFA_XSP16, literal(-3)))
          CFI DPL0 load(1, XDATA, add(CFA_XSP16, literal(-2)))
          CFI DPH0 load(1, XDATA, add(CFA_XSP16, literal(-1)))
          CFI CFA_SP SP+-2
          CFI CFA_XSP16 add(XSP16, 10)
          CFI Block cfiCond6 Using cfiCommon0
          CFI (cfiCond6) Function DataProcessing
          CFI (cfiCond6) Conditional ??CrossCallReturnLabel_1
          CFI (cfiCond6) R6 load(1, XDATA, add(CFA_XSP16, literal(-10)))
          CFI (cfiCond6) VB load(1, XDATA, add(CFA_XSP16, literal(-9)))
          CFI (cfiCond6) V0 load(1, XDATA, add(CFA_XSP16, literal(-8)))
          CFI (cfiCond6) V1 load(1, XDATA, add(CFA_XSP16, literal(-7)))
          CFI (cfiCond6) R7 load(1, XDATA, add(CFA_XSP16, literal(-6)))
          CFI (cfiCond6) ?RET_LOW load(1, XDATA, add(CFA_XSP16, literal(-5)))
          CFI (cfiCond6) ?RET_HIGH load(1, XDATA, add(CFA_XSP16, literal(-4)))
          CFI (cfiCond6) ?BRET_EXT load(1, XDATA, add(CFA_XSP16, literal(-3)))
          CFI (cfiCond6) DPL0 load(1, XDATA, add(CFA_XSP16, literal(-2)))
          CFI (cfiCond6) DPH0 load(1, XDATA, add(CFA_XSP16, literal(-1)))
          CFI (cfiCond6) CFA_SP SP+-2
          CFI (cfiCond6) CFA_XSP16 add(XSP16, 10)
          CFI Block cfiCond7 Using cfiCommon0
          CFI (cfiCond7) Function DataProcessing
          CFI (cfiCond7) Conditional ??CrossCallReturnLabel_2
          CFI (cfiCond7) R6 load(1, XDATA, add(CFA_XSP16, literal(-10)))
          CFI (cfiCond7) VB load(1, XDATA, add(CFA_XSP16, literal(-9)))
          CFI (cfiCond7) V0 load(1, XDATA, add(CFA_XSP16, literal(-8)))
          CFI (cfiCond7) V1 load(1, XDATA, add(CFA_XSP16, literal(-7)))
          CFI (cfiCond7) R7 load(1, XDATA, add(CFA_XSP16, literal(-6)))
          CFI (cfiCond7) ?RET_LOW load(1, XDATA, add(CFA_XSP16, literal(-5)))
          CFI (cfiCond7) ?RET_HIGH load(1, XDATA, add(CFA_XSP16, literal(-4)))
          CFI (cfiCond7) ?BRET_EXT load(1, XDATA, add(CFA_XSP16, literal(-3)))
          CFI (cfiCond7) DPL0 load(1, XDATA, add(CFA_XSP16, literal(-2)))
          CFI (cfiCond7) DPH0 load(1, XDATA, add(CFA_XSP16, literal(-1)))
          CFI (cfiCond7) CFA_SP SP+-2
          CFI (cfiCond7) CFA_XSP16 add(XSP16, 10)
          CFI Block cfiPicker8 Using cfiCommon1
          CFI (cfiPicker8) NoFunction
          CFI (cfiPicker8) Picker
        MOVX      @DPTR,A
        ; Setup parameters for call to function sprintf
        ; Setup parameters for call to function sprintf
        ; Setup parameters for call to function sprintf
        MOV       ?V0,A
        MOV       ?V1,#0x0
        MOV       R0,#?V0
        RET
          CFI EndBlock cfiCond5
          CFI EndBlock cfiCond6
          CFI EndBlock cfiCond7
          CFI EndBlock cfiPicker8
//  194 
//  195 
//  196 static void GenericApp_SendTheMessage(void)
//  197 {
//  198   afAddrType_t my_DstAddr;
//  199   my_DstAddr.addrMode = (afAddrMode_t)AddrBroadcast;
//  200   my_DstAddr.endPoint = GENERICAPP_ENDPOINT;
//  201   my_DstAddr.addr.shortAddr = 0XFFFF;
//  202   AF_DataRequest(      &my_DstAddr,
//  203                        &GenericApp_epDesc,
//  204                        GENERICAPP_CLUSTERID,
//  205                        7,
//  206                        AF_DataPack,
//  207                        &GenericApp_TransID,
//  208                        AF_DISCV_ROUTE,
//  209                        AF_DEFAULT_RADIUS );
//  210 }
//  211 
//  212  /*                                                                                                              
//  213 static void rxCB(uint8 port,uint8 event)     //port 端口   采用串口‘0’
//  214 {
//  215    HalUARTRead(0,cache,17);
//  216    int flag = 1;
//  217    if(osal_memcmp(cache,"Maker116114",11) && flag == 1)
//  218    {
//  219      for(int i=0;i<7;i++)
//  220      {
//  221         AF_DataPack[i] = cache[i+11];
//  222      }
//  223      GenericApp_SendTheMessage();
//  224      HalLedBlink(HAL_LED_2,0,50,500);
//  225      flag = 0;
//  226    }
//  227 
//  228 }
//  229 */
//  230 

        RSEG BANKED_CODE:HUGECODE:NOROOT(0)
//  231 static void rxCB(uint8 port,uint8 event)     //port 端口   采用串口‘0’
rxCB:
          CFI Block cfiBlock9 Using cfiCommon0
          CFI Function rxCB
        CODE
//  232 {
        FUNCALL rxCB, HalUARTRead
        LOCFRAME ISTACK, 0, STACK
        LOCFRAME PSTACK, 0, STACK
        LOCFRAME XSTACK, 22, STACK
        LOCFRAME IOVERLAY, 0, STATIC
        LOCFRAME DOVERLAY, 0, STATIC
        ARGFRAME ISTACK, 0, STACK
        ARGFRAME PSTACK, 0, STACK
        ARGFRAME XSTACK, 22, STACK
        ARGFRAME IOVERLAY, 0, STATIC
        ARGFRAME DOVERLAY, 0, STATIC
        FUNCALL rxCB, AF_DataRequest
        LOCFRAME ISTACK, 0, STACK
        LOCFRAME PSTACK, 0, STACK
        LOCFRAME XSTACK, 31, STACK
        LOCFRAME IOVERLAY, 0, STATIC
        LOCFRAME DOVERLAY, 0, STATIC
        ARGFRAME ISTACK, 0, STACK
        ARGFRAME PSTACK, 0, STACK
        ARGFRAME XSTACK, 31, STACK
        ARGFRAME IOVERLAY, 0, STATIC
        ARGFRAME DOVERLAY, 0, STATIC
        FUNCALL rxCB, HalLedBlink
        LOCFRAME ISTACK, 0, STACK
        LOCFRAME PSTACK, 0, STACK
        LOCFRAME XSTACK, 22, STACK
        LOCFRAME IOVERLAY, 0, STATIC
        LOCFRAME DOVERLAY, 0, STATIC
        ARGFRAME ISTACK, 0, STACK
        ARGFRAME PSTACK, 0, STACK
        ARGFRAME XSTACK, 22, STACK
        ARGFRAME IOVERLAY, 0, STATIC
        ARGFRAME DOVERLAY, 0, STATIC
        REQUIRE ?V0
        REQUIRE ?V1
        MOV       A,#-0xa
        LCALL     ?BANKED_ENTER_XDATA
          CFI DPH0 load(1, XDATA, add(CFA_XSP16, literal(-1)))
          CFI DPL0 load(1, XDATA, add(CFA_XSP16, literal(-2)))
          CFI ?BRET_EXT load(1, XDATA, add(CFA_XSP16, literal(-3)))
          CFI ?RET_HIGH load(1, XDATA, add(CFA_XSP16, literal(-4)))
          CFI ?RET_LOW load(1, XDATA, add(CFA_XSP16, literal(-5)))
          CFI R7 load(1, XDATA, add(CFA_XSP16, literal(-6)))
          CFI V1 load(1, XDATA, add(CFA_XSP16, literal(-7)))
          CFI V0 load(1, XDATA, add(CFA_XSP16, literal(-8)))
          CFI VB load(1, XDATA, add(CFA_XSP16, literal(-9)))
          CFI R6 load(1, XDATA, add(CFA_XSP16, literal(-10)))
          CFI CFA_SP SP+0
          CFI CFA_XSP16 add(XSP16, 10)
        ; Saved register size: 10
        ; Auto size: 12
        MOV       A,#-0xc
        LCALL     ?ALLOC_XSTACK8
          CFI CFA_XSP16 add(XSP16, 22)
//  233    HalUARTRead(0,cache,2);
        ; Setup parameters for call to function HalUARTRead
        MOV       R4,#0x2
        MOV       R5,#0x0
        MOV       R2,#cache & 0xff
        MOV       R3,#(cache >> 8) & 0xff
        MOV       R1,#0x0
        LCALL     `??HalUARTRead::?relay`; Banked call to: HalUARTRead
//  234    int flag = 1;
//  235    if(flag == 1)
//  236    {
//  237      if(cache[0] == 'C')     //当接收到的指令开头为C，即控制窗帘，将其控制码赋值给广播数据包窗帘的位
        MOV       DPTR,#cache
        MOVX      A,@DPTR
        XRL       A,#0x43
        JNZ       ??rxCB_0
//  238      {
//  239        AF_DataPack[1] = cache[1];
        INC       DPTR
        MOVX      A,@DPTR
        MOV       DPTR,#AF_DataPack + 1
        SJMP      ??rxCB_1
//  240      }
//  241      if(cache[0] == 'D')     
??rxCB_0:
        MOVX      A,@DPTR
        XRL       A,#0x44
        JNZ       ??rxCB_2
//  242      {
//  243        AF_DataPack[5] = cache[1];
        INC       DPTR
        MOVX      A,@DPTR
        MOV       DPTR,#AF_DataPack + 5
        SJMP      ??rxCB_1
//  244      }
//  245      if(cache[0] == 'L')     
??rxCB_2:
        MOVX      A,@DPTR
        XRL       A,#0x4c
        JNZ       ??rxCB_3
//  246      {
//  247        AF_DataPack[0] = cache[1];
        INC       DPTR
        MOVX      A,@DPTR
        MOV       DPTR,#AF_DataPack
??rxCB_1:
        MOVX      @DPTR,A
//  248      }
//  249      GenericApp_SendTheMessage();
??rxCB_3:
        MOV       A,#0x8
        LCALL     ?XSTACK_DISP0_8
        MOV       A,#0xf
        MOVX      @DPTR,A
        MOV       A,#0x9
        LCALL     ?XSTACK_DISP0_8
        MOV       A,#0xa
        MOVX      @DPTR,A
        MOV       DPL,?XSP + 0
        MOV       DPH,?XSP + 1
        MOV       A,#-0x1
        MOVX      @DPTR,A
        INC       DPTR
        MOVX      @DPTR,A
        ; Setup parameters for call to function AF_DataRequest
        MOV       ?V0,#0x1e
        MOV       R0,#?V0
        LCALL     ?PUSH_XSTACK_I_ONE
          CFI CFA_XSP16 add(XSP16, 23)
        MOV       ?V0,#GenericApp_TransID & 0xff
        MOV       ?V1,#(GenericApp_TransID >> 8) & 0xff
        MOV       R0,#?V0
        LCALL     ?PUSH_XSTACK_I_TWO
          CFI CFA_XSP16 add(XSP16, 25)
        MOV       ?V0,#AF_DataPack & 0xff
        MOV       ?V1,#(AF_DataPack >> 8) & 0xff
        MOV       R0,#?V0
        LCALL     ?PUSH_XSTACK_I_TWO
          CFI CFA_XSP16 add(XSP16, 27)
        MOV       ?V0,#0x7
        MOV       ?V1,#0x0
        MOV       R0,#?V0
        LCALL     ?PUSH_XSTACK_I_TWO
          CFI CFA_XSP16 add(XSP16, 29)
        MOV       ?V0,#0x1
        MOV       R0,#?V0
        LCALL     ?PUSH_XSTACK_I_TWO
          CFI CFA_XSP16 add(XSP16, 31)
        MOV       R1,#0x20
        MOV       R4,#GenericApp_epDesc & 0xff
        MOV       R5,#(GenericApp_epDesc >> 8) & 0xff
        MOV       A,#0x9
        LCALL     ?XSTACK_DISP101_8
        LCALL     `??AF_DataRequest::?relay`; Banked call to: AF_DataRequest
        MOV       A,#0x9
        LCALL     ?DEALLOC_XSTACK8
          CFI CFA_XSP16 add(XSP16, 22)
//  250      HalLedBlink(HAL_LED_2,0,50,500);
        ; Setup parameters for call to function HalLedBlink
        MOV       R4,#-0xc
        MOV       R5,#0x1
        MOV       R3,#0x32
        MOV       R2,#0x0
        MOV       R1,#0x2
        LCALL     `??HalLedBlink::?relay`; Banked call to: HalLedBlink
//  251      flag = 0;
//  252    }
//  253 
//  254 }
        MOV       A,#0xc
        LCALL     ?DEALLOC_XSTACK8
          CFI CFA_XSP16 add(XSP16, 10)
        LJMP      ?Subroutine0 & 0xFFFF
          CFI EndBlock cfiBlock9

        RSEG BANKED_CODE:HUGECODE:NOROOT(0)
//  255 void delay(long i)
delay:
          CFI Block cfiBlock10 Using cfiCommon0
          CFI Function delay
        CODE
//  256 {
        REQUIRE ?V0
        REQUIRE ?V1
        REQUIRE ?V2
        REQUIRE ?V3
        REQUIRE ?V4
        REQUIRE ?V5
        REQUIRE ?V6
        REQUIRE ?V7
        MOV       A,#-0x10
        LCALL     ?BANKED_ENTER_XDATA
          CFI DPH0 load(1, XDATA, add(CFA_XSP16, literal(-1)))
          CFI DPL0 load(1, XDATA, add(CFA_XSP16, literal(-2)))
          CFI ?BRET_EXT load(1, XDATA, add(CFA_XSP16, literal(-3)))
          CFI ?RET_HIGH load(1, XDATA, add(CFA_XSP16, literal(-4)))
          CFI ?RET_LOW load(1, XDATA, add(CFA_XSP16, literal(-5)))
          CFI R7 load(1, XDATA, add(CFA_XSP16, literal(-6)))
          CFI V7 load(1, XDATA, add(CFA_XSP16, literal(-7)))
          CFI V6 load(1, XDATA, add(CFA_XSP16, literal(-8)))
          CFI V5 load(1, XDATA, add(CFA_XSP16, literal(-9)))
          CFI V4 load(1, XDATA, add(CFA_XSP16, literal(-10)))
          CFI V3 load(1, XDATA, add(CFA_XSP16, literal(-11)))
          CFI V2 load(1, XDATA, add(CFA_XSP16, literal(-12)))
          CFI V1 load(1, XDATA, add(CFA_XSP16, literal(-13)))
          CFI V0 load(1, XDATA, add(CFA_XSP16, literal(-14)))
          CFI VB load(1, XDATA, add(CFA_XSP16, literal(-15)))
          CFI R6 load(1, XDATA, add(CFA_XSP16, literal(-16)))
          CFI CFA_SP SP+0
          CFI CFA_XSP16 add(XSP16, 16)
        ; Saved register size: 16
        ; Auto size: 0
        MOV       ?V0,R2
        MOV       ?V1,R3
        MOV       ?V2,R4
        MOV       ?V3,R5
//  257   while(i--);
??delay_0:
        MOV       ?V4,?V0
        MOV       ?V5,?V1
        MOV       ?V6,?V2
        MOV       ?V7,?V3
        MOV       DPTR,#__Constant_ffffffff
        MOV       R0,#?V0
        LCALL     ?L_ADD_X
        MOV       A,?V4
        ORL       A,?V5
        ORL       A,?V6
        ORL       A,?V7
        JNZ       ??delay_0
//  258 }
        MOV       R7,#0x8
        LJMP      ?BANKED_LEAVE_XDATA
          CFI EndBlock cfiBlock10

        RSEG XDATA_ID:CODE:NOROOT(0)
`?<Initializer for AF_DataPack>`:
        DB "000000"

        RSEG XDATA_ID:CODE:NOROOT(0)
`?<Initializer for This_username>`:
        DB "Maker"

        RSEG XDATA_ID:CODE:NOROOT(0)
`?<Initializer for This_password>`:
        DB "116114"

        RSEG BANK_RELAYS:CODE:REORDER:NOROOT(0)
`??GenericApp_Init::?relay`:
        CODE
        LCALL   ?BDISPATCH
        DATA24
        DC24    GenericApp_Init

        RSEG BANK_RELAYS:CODE:REORDER:NOROOT(0)
`??DataInit::?relay`:
        CODE
        LCALL   ?BDISPATCH
        DATA24
        DC24    DataInit

        RSEG BANK_RELAYS:CODE:REORDER:NOROOT(0)
`??GenericApp_ProcessEvent::?relay`:
        CODE
        LCALL   ?BDISPATCH
        DATA24
        DC24    GenericApp_ProcessEvent

        RSEG BANK_RELAYS:CODE:REORDER:NOROOT(0)
`??DataProcessing::?relay`:
        CODE
        LCALL   ?BDISPATCH
        DATA24
        DC24    DataProcessing

        RSEG BANK_RELAYS:CODE:REORDER:NOROOT(0)
`??rxCB::?relay`:
        CODE
        LCALL   ?BDISPATCH
        DATA24
        DC24    rxCB

        RSEG BANK_RELAYS:CODE:REORDER:NOROOT(0)
`??delay::?relay`:
        CODE
        LCALL   ?BDISPATCH
        DATA24
        DC24    delay

        RSEG XDATA_ROM_C:CONST:REORDER:NOROOT(0)
        DATA8
`?<Constant "$Light,%c,0b">`:
        DB "$Light,%c,0b"

        RSEG XDATA_ROM_C:CONST:REORDER:NOROOT(0)
        DATA8
`?<Constant "$Curtain,%c,0b">`:
        DB "$Curtain,%c,0b"

        RSEG XDATA_ROM_C:CONST:REORDER:NOROOT(0)
        DATA8
`?<Constant "$Drinking,%c,0b">`:
        DB "$Drinking,%c,0b"

        RSEG XDATA_ROM_C:CONST:REORDER:NOROOT(0)
        DATA32
__Constant_ffffffff:
        DD -1

        END
// 
// 643 bytes in segment BANKED_CODE
//  36 bytes in segment BANK_RELAYS
//  20 bytes in segment XDATA_I
//  20 bytes in segment XDATA_ID
//  62 bytes in segment XDATA_ROM_C
// 158 bytes in segment XDATA_Z
// 
//  56 bytes of CODE     memory
//  58 bytes of CONST    memory (+ 4 bytes shared)
// 643 bytes of HUGECODE memory
// 178 bytes of XDATA    memory
//
//Errors: none
//Warnings: none
