///////////////////////////////////////////////////////////////////////////////
//
// IAR C/C++ Compiler V10.20.1.5333 for 8051              11/Oct/2020  11:29:31
// Copyright 2004-2018 IAR Systems AB.
// PC-locked license - IAR Embedded Workbench for 8051
//
//    Core               =  plain
//    Code model         =  banked
//    Data model         =  large
//    Calling convention =  xdata reentrant
//    Constant location  =  data_rom
//    Dptr setup         =  1,16
//                          
//    Source file        =  
//        D:\ZStack-CC2530-2.5.1a\Projects\zstack\Samples\GenericApp\CC2530DB\EndDevice.c
//    Command line       =  
//        -f C:\Users\17245\AppData\Local\Temp\EW1B46.tmp
//        (D:\ZStack-CC2530-2.5.1a\Projects\zstack\Samples\GenericApp\CC2530DB\EndDevice.c
//        -D NWK_AUTO_POLL -D ZTOOL_P1 -D MT_TASK -D MT_SYS_FUNC -D MT_ZDO_FUNC
//        -D LCD_SUPPORTED=DEBUG -D xPOWER_SAVING -lC
//        D:\ZStack-CC2530-2.5.1a\Projects\zstack\Samples\GenericApp\CC2530DB\EndDeviceEB\List
//        -lA
//        D:\ZStack-CC2530-2.5.1a\Projects\zstack\Samples\GenericApp\CC2530DB\EndDeviceEB\List
//        --diag_suppress Pe001,Pa010 -o
//        D:\ZStack-CC2530-2.5.1a\Projects\zstack\Samples\GenericApp\CC2530DB\EndDeviceEB\Obj
//        -e --debug --core=plain --dptr=16,1 --data_model=large
//        --code_model=banked --calling_convention=xdata_reentrant
//        --place_constants=data_rom --nr_virtual_regs 8 -f
//        D:\ZStack-CC2530-2.5.1a\Projects\zstack\Samples\GenericApp\CC2530DB\..\..\..\Tools\CC2530DB\f8wEndev.cfg
//        (-DCPU32MHZ -DROOT=__near_func -DMAC_CFG_TX_DATA_MAX=3
//        -DMAC_CFG_TX_MAX=6 -DMAC_CFG_RX_MAX=3) -f
//        D:\ZStack-CC2530-2.5.1a\Projects\zstack\Samples\GenericApp\CC2530DB\..\..\..\Tools\CC2530DB\f8wConfig.cfg
//        (-DZIGBEEPRO -DSECURE=0 -DZG_SECURE_DYNAMIC=0 -DREFLECTOR
//        -DDEFAULT_CHANLIST=0x00000800 -DZDAPP_CONFIG_PAN_ID=0xFFFF
//        -DNWK_START_DELAY=100 -DEXTENDED_JOINING_RANDOM_MASK=0x007F
//        -DBEACON_REQUEST_DELAY=100 -DBEACON_REQ_DELAY_MASK=0x00FF
//        -DLINK_STATUS_JITTER_MASK=0x007F -DROUTE_EXPIRY_TIME=30
//        -DAPSC_ACK_WAIT_DURATION_POLLED=3000 -DNWK_INDIRECT_MSG_TIMEOUT=7
//        -DMAX_RREQ_ENTRIES=8 -DAPSC_MAX_FRAME_RETRIES=3
//        -DNWK_MAX_DATA_RETRIES=2 -DMAX_POLL_FAILURE_RETRIES=2 -DMAX_BCAST=9
//        -DAPS_MAX_GROUPS=16 -DMAX_RTG_ENTRIES=40 -DNWK_MAX_BINDING_ENTRIES=4
//        -DMAX_BINDING_CLUSTER_IDS=4 "-DDEFAULT_KEY={0x01, 0x03, 0x05, 0x07,
//        0x09, 0x0B, 0x0D, 0x0F, 0x00, 0x02, 0x04, 0x06, 0x08, 0x0A, 0x0C,
//        0x0D}" -DMAC_MAX_FRAME_SIZE=116 -DZDNWKMGR_MIN_TRANSMISSIONS=20
//        "-DCONST=const __code" -DGENERIC=__generic -DRFD_RCVC_ALWAYS_ON=FALSE
//        -DPOLL_RATE=1000 -DQUEUED_POLL_RATE=100 -DRESPONSE_POLL_RATE=100
//        -DREJOIN_POLL_RATE=440) -I
//        D:\ZStack-CC2530-2.5.1a\Projects\zstack\Samples\GenericApp\CC2530DB\
//        -I
//        D:\ZStack-CC2530-2.5.1a\Projects\zstack\Samples\GenericApp\CC2530DB\..\Source\
//        -I
//        D:\ZStack-CC2530-2.5.1a\Projects\zstack\Samples\GenericApp\CC2530DB\..\..\..\ZMain\TI2530DB\
//        -I
//        D:\ZStack-CC2530-2.5.1a\Projects\zstack\Samples\GenericApp\CC2530DB\..\..\..\..\..\Components\hal\include\
//        -I
//        D:\ZStack-CC2530-2.5.1a\Projects\zstack\Samples\GenericApp\CC2530DB\..\..\..\..\..\Components\hal\target\CC2530EB\
//        -I
//        D:\ZStack-CC2530-2.5.1a\Projects\zstack\Samples\GenericApp\CC2530DB\..\..\..\..\..\Components\mac\include\
//        -I
//        D:\ZStack-CC2530-2.5.1a\Projects\zstack\Samples\GenericApp\CC2530DB\..\..\..\..\..\Components\mac\high_level\
//        -I
//        D:\ZStack-CC2530-2.5.1a\Projects\zstack\Samples\GenericApp\CC2530DB\..\..\..\..\..\Components\mac\low_level\srf04\
//        -I
//        D:\ZStack-CC2530-2.5.1a\Projects\zstack\Samples\GenericApp\CC2530DB\..\..\..\..\..\Components\mac\low_level\srf04\single_chip\
//        -I
//        D:\ZStack-CC2530-2.5.1a\Projects\zstack\Samples\GenericApp\CC2530DB\..\..\..\..\..\Components\mt\
//        -I
//        D:\ZStack-CC2530-2.5.1a\Projects\zstack\Samples\GenericApp\CC2530DB\..\..\..\..\..\Components\osal\include\
//        -I
//        D:\ZStack-CC2530-2.5.1a\Projects\zstack\Samples\GenericApp\CC2530DB\..\..\..\..\..\Components\services\saddr\
//        -I
//        D:\ZStack-CC2530-2.5.1a\Projects\zstack\Samples\GenericApp\CC2530DB\..\..\..\..\..\Components\services\sdata\
//        -I
//        D:\ZStack-CC2530-2.5.1a\Projects\zstack\Samples\GenericApp\CC2530DB\..\..\..\..\..\Components\stack\af\
//        -I
//        D:\ZStack-CC2530-2.5.1a\Projects\zstack\Samples\GenericApp\CC2530DB\..\..\..\..\..\Components\stack\nwk\
//        -I
//        D:\ZStack-CC2530-2.5.1a\Projects\zstack\Samples\GenericApp\CC2530DB\..\..\..\..\..\Components\stack\sapi\
//        -I
//        D:\ZStack-CC2530-2.5.1a\Projects\zstack\Samples\GenericApp\CC2530DB\..\..\..\..\..\Components\stack\sec\
//        -I
//        D:\ZStack-CC2530-2.5.1a\Projects\zstack\Samples\GenericApp\CC2530DB\..\..\..\..\..\Components\stack\sys\
//        -I
//        D:\ZStack-CC2530-2.5.1a\Projects\zstack\Samples\GenericApp\CC2530DB\..\..\..\..\..\Components\stack\zdo\
//        -I
//        D:\ZStack-CC2530-2.5.1a\Projects\zstack\Samples\GenericApp\CC2530DB\..\..\..\..\..\Components\zmac\
//        -I
//        D:\ZStack-CC2530-2.5.1a\Projects\zstack\Samples\GenericApp\CC2530DB\..\..\..\..\..\Components\zmac\f8w\
//        -Ohz --require_prototypes --no_code_motion)
//    Locale             =  Chinese (Simplified)_CHN.936
//    List file          =  
//        D:\ZStack-CC2530-2.5.1a\Projects\zstack\Samples\GenericApp\CC2530DB\EndDeviceEB\List\EndDevice.s51
//
///////////////////////////////////////////////////////////////////////////////

        NAME EndDevice

        RTMODEL "__SystemLibrary", "CLib"
        RTMODEL "__calling_convention", "xdata_reentrant"
        RTMODEL "__code_model", "banked"
        RTMODEL "__core", "plain"
        RTMODEL "__data_model", "large"
        RTMODEL "__dptr_size", "16"
        RTMODEL "__extended_stack", "disabled"
        RTMODEL "__location_for_constants", "data"
        RTMODEL "__number_of_dptrs", "1"
        RTMODEL "__register_banks", "*"
        RTMODEL "__rt_version", "1"

        RSEG DOVERLAY:DATA:NOROOT(0)
        RSEG IOVERLAY:IDATA:NOROOT(0)
        RSEG ISTACK:IDATA:NOROOT(0)
        RSEG PSTACK:XDATA:NOROOT(0)
        RSEG XSTACK:XDATA:NOROOT(0)

        EXTERN ?V0
        EXTERN ?V1
        EXTERN ?V2
        EXTERN ?V3
        EXTERN ?ALLOC_XSTACK8
        EXTERN ?BANKED_ENTER_XDATA
        EXTERN ?BANKED_LEAVE_XDATA
        EXTERN ?BDISPATCH
        EXTERN ?BRET
        EXTERN ?DEALLOC_XSTACK8
        EXTERN ?PUSH_XSTACK_I_ONE
        EXTERN ?PUSH_XSTACK_I_THREE
        EXTERN ?PUSH_XSTACK_I_TWO
        EXTERN ?XSP
        EXTERN ?XSTACK_DISP0_8
        EXTERN ?XSTACK_DISP101_8
        EXTERN __INIT_XDATA_I
        EXTERN __INIT_XDATA_Z

        PUBLIC `??DataInit::?relay`
        FUNCTION `??DataInit::?relay`,0203H
        PUBLIC `??GenericApp_Init::?relay`
        FUNCTION `??GenericApp_Init::?relay`,0203H
        FUNCTION `??GenericApp_MessageMSGCB::?relay`,0203H
        PUBLIC `??GenericApp_ProcessEvent::?relay`
        FUNCTION `??GenericApp_ProcessEvent::?relay`,0203H
        PUBLIC `??GenericApp_SendTheMessage::?relay`
        FUNCTION `??GenericApp_SendTheMessage::?relay`,0203H
        PUBLIC `??HomeInit::?relay`
        FUNCTION `??HomeInit::?relay`,0203H
        PUBLIC `??delay::?relay`
        FUNCTION `??delay::?relay`,0203H
        PUBLIC AF_DataPack
        PUBLIC DataInit
        FUNCTION DataInit,0203H
        ARGFRAME XSTACK, 38, STACK
        ARGFRAME IOVERLAY, 0, STATIC
        ARGFRAME DOVERLAY, 0, STATIC
        LOCFRAME ISTACK, 3, STACK
        PUBLIC GenericApp_ClusterList
        PUBLIC GenericApp_Init
        FUNCTION GenericApp_Init,021203H
        ARGFRAME XSTACK, 0, STACK
        LOCFRAME XSTACK, 38, STACK
        FUNCTION GenericApp_MessageMSGCB,0a1203H
        ARGFRAME XSTACK, 12, STACK
        ARGFRAME IOVERLAY, 0, STATIC
        ARGFRAME DOVERLAY, 0, STATIC
        LOCFRAME XSTACK, 16, STACK
        PUBLIC GenericApp_NwkState
        PUBLIC GenericApp_ProcessEvent
        FUNCTION GenericApp_ProcessEvent,0a1203H
        ARGFRAME XSTACK, 0, STACK
        LOCFRAME XSTACK, 12, STACK
        PUBLIC GenericApp_SendTheMessage
        FUNCTION GenericApp_SendTheMessage,0a1203H
        ARGFRAME XSTACK, 12, STACK
        ARGFRAME IOVERLAY, 0, STATIC
        ARGFRAME DOVERLAY, 0, STATIC
        LOCFRAME XSTACK, 31, STACK
        PUBLIC GenericApp_SimpleDesc
        PUBLIC GenericApp_TaskID
        PUBLIC GenericApp_TransID
        PUBLIC GenericApp_epDesc
        PUBLIC HomeInit
        FUNCTION HomeInit,0203H
        ARGFRAME XSTACK, 38, STACK
        ARGFRAME IOVERLAY, 0, STATIC
        ARGFRAME DOVERLAY, 0, STATIC
        PUBWEAK P1DIR
        PUBWEAK P1SEL
        PUBLIC This_password
        PUBLIC This_username
        PUBWEAK _A_P1
        PUBLIC delay
        FUNCTION delay,0203H
        ARGFRAME XSTACK, 0, STACK
        
          CFI Names cfiNames0
          CFI StackFrame CFA_SP SP IDATA
          CFI StackFrame CFA_PSP16 PSP16 XDATA
          CFI StackFrame CFA_XSP16 XSP16 XDATA
          CFI StaticOverlayFrame CFA_IOVERLAY IOVERLAY
          CFI StaticOverlayFrame CFA_DOVERLAY DOVERLAY
          CFI Resource `PSW.CY`:1, `B.BR0`:1, `B.BR1`:1, `B.BR2`:1, `B.BR3`:1
          CFI Resource `B.BR4`:1, `B.BR5`:1, `B.BR6`:1, `B.BR7`:1, `VB.BR8`:1
          CFI Resource `VB.BR9`:1, `VB.BR10`:1, `VB.BR11`:1, `VB.BR12`:1
          CFI Resource `VB.BR13`:1, `VB.BR14`:1, `VB.BR15`:1, VB:8, B:8, A:8
          CFI Resource PSW:8, DPL0:8, DPH0:8, R0:8, R1:8, R2:8, R3:8, R4:8, R5:8
          CFI Resource R6:8, R7:8, V0:8, V1:8, V2:8, V3:8, V4:8, V5:8, V6:8, V7:8
          CFI Resource SP:8, PSPH:8, PSPL:8, PSP16:16, XSPH:8, XSPL:8, XSP16:16
          CFI VirtualResource ?RET:24
          CFI Resource ?BRET_EXT:8
          CFI VirtualResource ?RET_HIGH:8, ?RET_LOW:8
          CFI ResourceParts PSP16 PSPH, PSPL
          CFI ResourceParts XSP16 XSPH, XSPL
          CFI ResourceParts ?RET ?BRET_EXT, ?RET_HIGH, ?RET_LOW
          CFI EndNames cfiNames0
        
          CFI Common cfiCommon0 Using cfiNames0
          CFI CodeAlign 1
          CFI DataAlign -1
          CFI ReturnAddress ?RET CODE
          CFI CFA_DOVERLAY Used
          CFI CFA_IOVERLAY Used
          CFI CFA_SP SP+-3
          CFI CFA_PSP16 PSP16+0
          CFI CFA_XSP16 XSP16+0
          CFI `PSW.CY` SameValue
          CFI `B.BR0` SameValue
          CFI `B.BR1` SameValue
          CFI `B.BR2` SameValue
          CFI `B.BR3` SameValue
          CFI `B.BR4` SameValue
          CFI `B.BR5` SameValue
          CFI `B.BR6` SameValue
          CFI `B.BR7` SameValue
          CFI `VB.BR8` SameValue
          CFI `VB.BR9` SameValue
          CFI `VB.BR10` SameValue
          CFI `VB.BR11` SameValue
          CFI `VB.BR12` SameValue
          CFI `VB.BR13` SameValue
          CFI `VB.BR14` SameValue
          CFI `VB.BR15` SameValue
          CFI VB SameValue
          CFI B Undefined
          CFI A Undefined
          CFI PSW SameValue
          CFI DPL0 SameValue
          CFI DPH0 SameValue
          CFI R0 Undefined
          CFI R1 Undefined
          CFI R2 Undefined
          CFI R3 Undefined
          CFI R4 Undefined
          CFI R5 Undefined
          CFI R6 SameValue
          CFI R7 SameValue
          CFI V0 SameValue
          CFI V1 SameValue
          CFI V2 SameValue
          CFI V3 SameValue
          CFI V4 SameValue
          CFI V5 SameValue
          CFI V6 SameValue
          CFI V7 SameValue
          CFI PSPH Undefined
          CFI PSPL Undefined
          CFI XSPH Undefined
          CFI XSPL Undefined
          CFI ?RET Concat
          CFI ?BRET_EXT Frame(CFA_SP, 3)
          CFI ?RET_HIGH Frame(CFA_SP, 2)
          CFI ?RET_LOW Frame(CFA_SP, 1)
          CFI EndCommon cfiCommon0
        
        
          CFI Common cfiCommon1 Using cfiNames0
          CFI CodeAlign 1
          CFI DataAlign -1
          CFI ReturnAddress ?RET CODE
          CFI CFA_DOVERLAY Used
          CFI CFA_IOVERLAY Used
          CFI CFA_SP SP+-2
          CFI CFA_PSP16 PSP16+0
          CFI CFA_XSP16 XSP16+0
          CFI `PSW.CY` SameValue
          CFI `B.BR0` SameValue
          CFI `B.BR1` SameValue
          CFI `B.BR2` SameValue
          CFI `B.BR3` SameValue
          CFI `B.BR4` SameValue
          CFI `B.BR5` SameValue
          CFI `B.BR6` SameValue
          CFI `B.BR7` SameValue
          CFI `VB.BR8` SameValue
          CFI `VB.BR9` SameValue
          CFI `VB.BR10` SameValue
          CFI `VB.BR11` SameValue
          CFI `VB.BR12` SameValue
          CFI `VB.BR13` SameValue
          CFI `VB.BR14` SameValue
          CFI `VB.BR15` SameValue
          CFI VB SameValue
          CFI B SameValue
          CFI A SameValue
          CFI PSW SameValue
          CFI DPL0 SameValue
          CFI DPH0 SameValue
          CFI R0 SameValue
          CFI R1 SameValue
          CFI R2 SameValue
          CFI R3 SameValue
          CFI R4 SameValue
          CFI R5 SameValue
          CFI R6 SameValue
          CFI R7 SameValue
          CFI V0 SameValue
          CFI V1 SameValue
          CFI V2 SameValue
          CFI V3 SameValue
          CFI V4 SameValue
          CFI V5 SameValue
          CFI V6 SameValue
          CFI V7 SameValue
          CFI PSPH Undefined
          CFI PSPL Undefined
          CFI XSPH Undefined
          CFI XSPL Undefined
          CFI ?RET Concat
          CFI ?BRET_EXT SameValue
          CFI ?RET_HIGH Frame(CFA_SP, 2)
          CFI ?RET_LOW Frame(CFA_SP, 1)
          CFI EndCommon cfiCommon1
        
AF_DataRequest      SYMBOL "AF_DataRequest"
`??AF_DataRequest::?relay` SYMBOL "?relay", AF_DataRequest
HalLedSet           SYMBOL "HalLedSet"
`??HalLedSet::?relay` SYMBOL "?relay", HalLedSet
HalUARTOpen         SYMBOL "HalUARTOpen"
`??HalUARTOpen::?relay` SYMBOL "?relay", HalUARTOpen
afRegister          SYMBOL "afRegister"
`??afRegister::?relay` SYMBOL "?relay", afRegister
osal_memcpy         SYMBOL "osal_memcpy"
`??osal_memcpy::?relay` SYMBOL "?relay", osal_memcpy
osal_msg_deallocate SYMBOL "osal_msg_deallocate"
`??osal_msg_deallocate::?relay` SYMBOL "?relay", osal_msg_deallocate
osal_msg_receive    SYMBOL "osal_msg_receive"
`??osal_msg_receive::?relay` SYMBOL "?relay", osal_msg_receive
osal_set_event      SYMBOL "osal_set_event"
`??osal_set_event::?relay` SYMBOL "?relay", osal_set_event
osal_start_timerEx  SYMBOL "osal_start_timerEx"
`??osal_start_timerEx::?relay` SYMBOL "?relay", osal_start_timerEx
DataInit            SYMBOL "DataInit"
`??DataInit::?relay` SYMBOL "?relay", DataInit
GenericApp_Init     SYMBOL "GenericApp_Init"
`??GenericApp_Init::?relay` SYMBOL "?relay", GenericApp_Init
GenericApp_ProcessEvent SYMBOL "GenericApp_ProcessEvent"
`??GenericApp_ProcessEvent::?relay` SYMBOL "?relay", GenericApp_ProcessEvent
GenericApp_SendTheMessage SYMBOL "GenericApp_SendTheMessage"
`??GenericApp_SendTheMessage::?relay` SYMBOL "?relay", GenericApp_SendTheMessage
HomeInit            SYMBOL "HomeInit"
`??HomeInit::?relay` SYMBOL "?relay", HomeInit
delay               SYMBOL "delay"
`??delay::?relay`   SYMBOL "?relay", delay

        EXTERN `??AF_DataRequest::?relay`
        FUNCTION `??AF_DataRequest::?relay`,00H
        EXTERN `??HalLedSet::?relay`
        FUNCTION `??HalLedSet::?relay`,00H
        EXTERN `??HalUARTOpen::?relay`
        FUNCTION `??HalUARTOpen::?relay`,00H
        EXTERN `??afRegister::?relay`
        FUNCTION `??afRegister::?relay`,00H
        EXTERN `??osal_memcpy::?relay`
        FUNCTION `??osal_memcpy::?relay`,00H
        EXTERN `??osal_msg_deallocate::?relay`
        FUNCTION `??osal_msg_deallocate::?relay`,00H
        EXTERN `??osal_msg_receive::?relay`
        FUNCTION `??osal_msg_receive::?relay`,00H
        EXTERN `??osal_set_event::?relay`
        FUNCTION `??osal_set_event::?relay`,00H
        EXTERN `??osal_start_timerEx::?relay`
        FUNCTION `??osal_start_timerEx::?relay`,00H
        EXTERN AF_DataRequest
        FUNCTION AF_DataRequest,0202H
        ARGFRAME ISTACK, 0, STACK
        ARGFRAME PSTACK, 0, STACK
        ARGFRAME XSTACK, 31, STACK
        ARGFRAME IOVERLAY, 0, STATIC
        ARGFRAME DOVERLAY, 0, STATIC
        EXTERN HalLedSet
        FUNCTION HalLedSet,0202H
        ARGFRAME ISTACK, 0, STACK
        ARGFRAME PSTACK, 0, STACK
        ARGFRAME XSTACK, 13, STACK
        ARGFRAME IOVERLAY, 0, STATIC
        ARGFRAME DOVERLAY, 0, STATIC
        EXTERN HalUARTOpen
        FUNCTION HalUARTOpen,0202H
        ARGFRAME ISTACK, 0, STACK
        ARGFRAME PSTACK, 0, STACK
        ARGFRAME XSTACK, 38, STACK
        ARGFRAME IOVERLAY, 0, STATIC
        ARGFRAME DOVERLAY, 0, STATIC
        EXTERN afRegister
        FUNCTION afRegister,0202H
        ARGFRAME ISTACK, 0, STACK
        ARGFRAME PSTACK, 0, STACK
        ARGFRAME XSTACK, 38, STACK
        ARGFRAME IOVERLAY, 0, STATIC
        ARGFRAME DOVERLAY, 0, STATIC
        EXTERN osal_memcpy
        FUNCTION osal_memcpy,0202H
        ARGFRAME ISTACK, 0, STACK
        ARGFRAME PSTACK, 0, STACK
        ARGFRAME XSTACK, 16, STACK
        ARGFRAME IOVERLAY, 0, STATIC
        ARGFRAME DOVERLAY, 0, STATIC
        EXTERN osal_msg_deallocate
        FUNCTION osal_msg_deallocate,0202H
        ARGFRAME ISTACK, 0, STACK
        ARGFRAME PSTACK, 0, STACK
        ARGFRAME XSTACK, 12, STACK
        ARGFRAME IOVERLAY, 0, STATIC
        ARGFRAME DOVERLAY, 0, STATIC
        EXTERN osal_msg_receive
        FUNCTION osal_msg_receive,0202H
        ARGFRAME ISTACK, 0, STACK
        ARGFRAME PSTACK, 0, STACK
        ARGFRAME XSTACK, 12, STACK
        ARGFRAME IOVERLAY, 0, STATIC
        ARGFRAME DOVERLAY, 0, STATIC
        EXTERN osal_set_event
        FUNCTION osal_set_event,0202H
        ARGFRAME ISTACK, 0, STACK
        ARGFRAME PSTACK, 0, STACK
        ARGFRAME XSTACK, 12, STACK
        ARGFRAME IOVERLAY, 0, STATIC
        ARGFRAME DOVERLAY, 0, STATIC
        EXTERN osal_start_timerEx
        FUNCTION osal_start_timerEx,0202H
        ARGFRAME ISTACK, 0, STACK
        ARGFRAME PSTACK, 0, STACK
        ARGFRAME XSTACK, 12, STACK
        ARGFRAME IOVERLAY, 0, STATIC
        ARGFRAME DOVERLAY, 0, STATIC

// D:\ZStack-CC2530-2.5.1a\Projects\zstack\Samples\GenericApp\CC2530DB\EndDevice.c
//    1 #include "OSAL.h"
//    2 #include "AF.h"
//    3 #include "ZDApp.h"
//    4 #include "ZDObject.h"
//    5 #include "ZDProfile.h"
//    6 #include <string.h>
//    7 #include "Coordinator.h"
//    8 #include "DebugTrace.h"
//    9 #include "Sensor.h"
//   10 #include "Infrared.h"
//   11 #if !defined( WIN32 )
//   12   #include "OnBoard.h"

        ASEGN SFR_AN:DATA:NOROOT,090H
// union <unnamed> volatile __sfr _A_P1
_A_P1:
        DATA8
        DS 1

        ASEGN SFR_AN:DATA:NOROOT,0f4H
// unsigned char volatile __sfr P1SEL
P1SEL:
        DATA8
        DS 1

        ASEGN SFR_AN:DATA:NOROOT,0feH
// unsigned char volatile __sfr P1DIR
P1DIR:
        DATA8
        DS 1
//   13 #endif
//   14 
//   15 /* HAL */
//   16 #include "hal_lcd.h"
//   17 #include "hal_led.h"
//   18 #include "hal_key.h"
//   19 #include "hal_uart.h"
//   20 
//   21 #define SEND_DATA_EVENT 0X01
//   22 
//   23 //#define Drinking 1
//   24 #define Curtain  1
//   25 //#define Light_D  1
//   26 //#define AirConditioning 1
//   27 
//   28 #define Light                   P1_0
//   29 #define CurtainOFF              P1_0
//   30 #define CurtainON               P1_1
//   31 #define DrinkingFountain        P1_2
//   32 
//   33 
//   34        
//   35 

        RSEG XDATA_ROM_C:CONST:REORDER:NOROOT(0)
        DATA16
//   36 const cId_t GenericApp_ClusterList[GENERICAPP_MAX_CLUSTERS] =
GenericApp_ClusterList:
        DW 1
//   37 {
//   38   GENERICAPP_CLUSTERID
//   39 };
//   40 
//   41 

        RSEG XDATA_ROM_C:CONST:REORDER:NOROOT(0)
        DATA8
//   42 const SimpleDescriptionFormat_t GenericApp_SimpleDesc =
GenericApp_SimpleDesc:
        DB 10
        DATA16
        DW 3844
        DW 1
        DATA8
        DB 0
        DB 0
        DATA16
        DW 0H
        DATA8
        DB 1
        DATA16
        DW GenericApp_ClusterList
//   43 {
//   44   GENERICAPP_ENDPOINT,              //  int Endpoint;
//   45   GENERICAPP_PROFID,                //  uint16 AppProfId[2];
//   46   GENERICAPP_DEVICEID,              //  u                                                                                                                                                                                                                                                                                                                                                                                                                                                                                                                                                                                                                                                                                                                                                                                                                                                                                                                                                                                                                                                                                                                                                                                                                                                                                                                                                                                                                                                                                                                                                                                                                                                                                                                                                                                                                                                                                                                                                                                                                                                                                                                                                                                                                                                                                                                                                                                                                                                                                                                                                                                                                                                                                                                                                                                                                                                                                                                                                                                                                                                                                                                                                                                                                                                                                                                                                                                                                                                                                                                                                                                                                                                                                                                                                                                                                                                                                                                                                                                                                                                                                                                                                                                                                                                                                                                                                                                                                                                                                                                                                                                                                                                                                            int16 AppDeviceId[2];
//   47   GENERICAPP_DEVICE_VERSION,        //  int   AppDevVer:4;
//   48   GENERICAPP_FLAGS,       
//   49   0,                                //  int   AppFlags:4;
//   50   (cId_t *)NULL,
//   51   GENERICAPP_MAX_CLUSTERS,          //  byte  AppNumInClusters;
//   52   (cId_t *)GenericApp_ClusterList   //  byte *pAppInClusterList;
//   53 };
//   54 
//   55 
//   56 typedef struct DataPack
//   57 {
//   58  unsigned char username[5];                     //用户名：Maker 
//   59  unsigned char password[6];                     //密码：116114
//   60  unsigned char LightStatus[2];
//   61  unsigned char CurtainStatus[2];                    //窗帘设置四档  1 2 3 4 
//   62  unsigned char AirConditioning[4];                  //空调开关及调温
//   63  unsigned char DrinkingFountainStatus[2];
//   64   
//   65 }DataPack;
//   66 
//   67 

        RSEG XDATA_Z:XDATA:NOROOT(0)
        DATA8
//   68 endPointDesc_t GenericApp_epDesc;
GenericApp_epDesc:
        DS 6
        REQUIRE __INIT_XDATA_Z

        RSEG XDATA_Z:XDATA:NOROOT(0)
        DATA8
//   69 byte GenericApp_TaskID;
GenericApp_TaskID:
        DS 1
        REQUIRE __INIT_XDATA_Z

        RSEG XDATA_Z:XDATA:NOROOT(0)
        DATA8
//   70 byte GenericApp_TransID;
GenericApp_TransID:
        DS 1
        REQUIRE __INIT_XDATA_Z

        RSEG XDATA_Z:XDATA:NOROOT(0)
        DATA8
//   71 devStates_t GenericApp_NwkState;
GenericApp_NwkState:
        DS 1
        REQUIRE __INIT_XDATA_Z

        RSEG XDATA_Z:XDATA:NOROOT(0)
        DATA8
//   72 DataPack AF_DataPack;
AF_DataPack:
        DS 21
        REQUIRE __INIT_XDATA_Z

        RSEG XDATA_I:XDATA:NOROOT(0)
//   73 unsigned char This_username[] = "Maker";
This_username:
        DATA8
        DS 6
        REQUIRE `?<Initializer for This_username>`
        REQUIRE __INIT_XDATA_I

        RSEG XDATA_I:XDATA:NOROOT(0)
//   74 unsigned char This_password[] = "116114";
This_password:
        DATA8
        DS 7
        REQUIRE `?<Initializer for This_password>`
        REQUIRE __INIT_XDATA_I
//   75 
//   76 void GenericApp_MessageMSGCB( afIncomingMSGPacket_t *pckt );
//   77 void GenericApp_SendTheMessage( void );
//   78 void DataInit(void);
//   79 void HomeInit(unsigned int);
//   80 void delay(uint8 );
//   81 
//   82 //int8 readTemp(void);
//   83 //static void rxCB(uint8 port,uint8 event);
//   84 
//   85 

        RSEG BANKED_CODE:HUGECODE:NOROOT(0)
//   86 void GenericApp_Init( uint8 task_id )
GenericApp_Init:
          CFI Block cfiBlock0 Using cfiCommon0
          CFI Function GenericApp_Init
        CODE
//   87 {
        FUNCALL GenericApp_Init, afRegister
        LOCFRAME ISTACK, 0, STACK
        LOCFRAME PSTACK, 0, STACK
        LOCFRAME XSTACK, 38, STACK
        LOCFRAME IOVERLAY, 0, STATIC
        LOCFRAME DOVERLAY, 0, STATIC
        ARGFRAME ISTACK, 0, STACK
        ARGFRAME PSTACK, 0, STACK
        ARGFRAME XSTACK, 38, STACK
        ARGFRAME IOVERLAY, 0, STATIC
        ARGFRAME DOVERLAY, 0, STATIC
        FUNCALL GenericApp_Init, DataInit
        LOCFRAME ISTACK, 0, STACK
        LOCFRAME PSTACK, 0, STACK
        LOCFRAME XSTACK, 38, STACK
        LOCFRAME IOVERLAY, 0, STATIC
        LOCFRAME DOVERLAY, 0, STATIC
        ARGFRAME ISTACK, 0, STACK
        ARGFRAME PSTACK, 0, STACK
        ARGFRAME XSTACK, 38, STACK
        ARGFRAME IOVERLAY, 0, STATIC
        ARGFRAME DOVERLAY, 0, STATIC
        FUNCALL GenericApp_Init, HomeInit
        LOCFRAME ISTACK, 0, STACK
        LOCFRAME PSTACK, 0, STACK
        LOCFRAME XSTACK, 38, STACK
        LOCFRAME IOVERLAY, 0, STATIC
        LOCFRAME DOVERLAY, 0, STATIC
        ARGFRAME ISTACK, 0, STACK
        ARGFRAME PSTACK, 0, STACK
        ARGFRAME XSTACK, 38, STACK
        ARGFRAME IOVERLAY, 0, STATIC
        ARGFRAME DOVERLAY, 0, STATIC
        FUNCALL GenericApp_Init, HalUARTOpen
        LOCFRAME ISTACK, 0, STACK
        LOCFRAME PSTACK, 0, STACK
        LOCFRAME XSTACK, 38, STACK
        LOCFRAME IOVERLAY, 0, STATIC
        LOCFRAME DOVERLAY, 0, STATIC
        ARGFRAME ISTACK, 0, STACK
        ARGFRAME PSTACK, 0, STACK
        ARGFRAME XSTACK, 38, STACK
        ARGFRAME IOVERLAY, 0, STATIC
        ARGFRAME DOVERLAY, 0, STATIC
        MOV       A,#-0x9
        LCALL     ?BANKED_ENTER_XDATA
          CFI DPH0 load(1, XDATA, add(CFA_XSP16, literal(-1)))
          CFI DPL0 load(1, XDATA, add(CFA_XSP16, literal(-2)))
          CFI ?BRET_EXT load(1, XDATA, add(CFA_XSP16, literal(-3)))
          CFI ?RET_HIGH load(1, XDATA, add(CFA_XSP16, literal(-4)))
          CFI ?RET_LOW load(1, XDATA, add(CFA_XSP16, literal(-5)))
          CFI R7 load(1, XDATA, add(CFA_XSP16, literal(-6)))
          CFI V0 load(1, XDATA, add(CFA_XSP16, literal(-7)))
          CFI VB load(1, XDATA, add(CFA_XSP16, literal(-8)))
          CFI R6 load(1, XDATA, add(CFA_XSP16, literal(-9)))
          CFI CFA_SP SP+0
          CFI CFA_XSP16 add(XSP16, 9)
        ; Saved register size: 9
        ; Auto size: 29
        MOV       A,#-0x1d
        LCALL     ?ALLOC_XSTACK8
          CFI CFA_XSP16 add(XSP16, 38)
        MOV       A,R1
//   88   halUARTCfg_t uartConfig;
//   89   GenericApp_TaskID                     = task_id;
        MOV       DPTR,#GenericApp_TaskID
        MOVX      @DPTR,A
//   90   GenericApp_NwkState                   = DEV_INIT;
        MOV       DPTR,#GenericApp_NwkState
        MOV       A,#0x1
        MOVX      @DPTR,A
//   91   GenericApp_TransID                    = 0;
        MOV       DPTR,#GenericApp_TransID
        CLR       A
        MOVX      @DPTR,A
//   92 
//   93   GenericApp_epDesc.endPoint            = GENERICAPP_ENDPOINT;
        MOV       DPTR,#GenericApp_epDesc
        MOV       A,#0xa
        MOVX      @DPTR,A
//   94   GenericApp_epDesc.task_id             = &GenericApp_TaskID;
        INC       DPTR
        MOV       A,#GenericApp_TaskID & 0xff
        MOVX      @DPTR,A
        INC       DPTR
        MOV       A,#(GenericApp_TaskID >> 8) & 0xff
        MOVX      @DPTR,A
//   95   GenericApp_epDesc.simpleDesc          =
//   96          (SimpleDescriptionFormat_t *)&GenericApp_SimpleDesc;
        INC       DPTR
        MOV       A,#GenericApp_SimpleDesc & 0xff
        MOVX      @DPTR,A
        INC       DPTR
        MOV       A,#(GenericApp_SimpleDesc >> 8) & 0xff
        MOVX      @DPTR,A
//   97   GenericApp_epDesc.latencyReq = noLatencyReqs;
        INC       DPTR
        CLR       A
        MOVX      @DPTR,A
//   98 
//   99   // Register the endpoint description with the AF
//  100   afRegister( &GenericApp_epDesc );
        ; Setup parameters for call to function afRegister
        MOV       R2,#GenericApp_epDesc & 0xff
        MOV       R3,#(GenericApp_epDesc >> 8) & 0xff
        LCALL     `??afRegister::?relay`; Banked call to: afRegister
//  101   P1SEL                                &= 0xF8;         //初始化P1_0,P1_1 P1_2为输出状态
        ANL       0xf4,#0xf8
//  102   P1DIR                                |= 0x07;
        ORL       0xfe,#0x7
//  103   
//  104   DataInit();
        ; Setup parameters for call to function DataInit
        LCALL     `??DataInit::?relay`; Banked call to: DataInit
//  105   HomeInit(2);
        ; Setup parameters for call to function HomeInit
        MOV       R2,#0x2
        MOV       R3,#0x0
        LCALL     `??HomeInit::?relay`; Banked call to: HomeInit
//  106   /***初始化串口***/
//  107   uartConfig.configured         = TRUE;
        MOV       DPL,?XSP + 0
        MOV       DPH,?XSP + 1
        MOV       A,#0x1
        MOVX      @DPTR,A
//  108   uartConfig.baudRate           = HAL_UART_BR_9600;
        LCALL     ?XSTACK_DISP0_8
        CLR       A
        MOVX      @DPTR,A
//  109   uartConfig.flowControl        = FALSE;
        MOV       A,#0x2
        LCALL     ?XSTACK_DISP0_8
        CLR       A
        MOVX      @DPTR,A
//  110   uartConfig.callBackFunc       = NULL;
        MOV       A,#0x1b
        LCALL     ?XSTACK_DISP0_8
        CLR       A
        MOVX      @DPTR,A
        INC       DPTR
        MOVX      @DPTR,A
//  111   HalUARTOpen (0,&uartConfig);
        ; Setup parameters for call to function HalUARTOpen
        MOV       R2,?XSP + 0
        MOV       R3,?XSP + 1
        MOV       R1,A
        LCALL     `??HalUARTOpen::?relay`; Banked call to: HalUARTOpen
//  112 }
        MOV       A,#0x1d
        LCALL     ?DEALLOC_XSTACK8
          CFI CFA_XSP16 add(XSP16, 9)
        MOV       R7,#0x1
        LJMP      ?BANKED_LEAVE_XDATA
          CFI EndBlock cfiBlock0
        REQUIRE P1SEL
        REQUIRE P1DIR
//  113 
//  114 

        RSEG BANKED_CODE:HUGECODE:NOROOT(0)
//  115 void HomeInit(unsigned int a)            //按照参数对不同家居进行初始化
HomeInit:
          CFI Block cfiBlock1 Using cfiCommon0
          CFI Function HomeInit
        CODE
//  116 {
        ; Saved register size: 0
        ; Auto size: 0
//  117   if(a == 1)                    //灯
        MOV       A,#0x1
        XRL       A,R2
        ORL       A,R3
        JNZ       ??HomeInit_0
//  118   {
//  119     Light = 0;
        CLR       0x90.0
        SJMP      ??HomeInit_1
//  120     //HalLedSet(HAL_LED_1,HAL_LED_MODE_ON);
//  121   }
//  122   if(a == 2)                    //窗帘
??HomeInit_0:
        MOV       A,#0x2
        XRL       A,R2
        ORL       A,R3
        JNZ       ??HomeInit_2
//  123   {
//  124     CurtainOFF = 1;
        SETB      0x90.0
//  125     CurtainON  = 0;
        CLR       0x90.1
        SJMP      ??HomeInit_1
//  126    // HalLedSet(HAL_LED_1,HAL_LED_MODE_ON);
//  127   }
//  128   if(a == 3)
??HomeInit_2:
        MOV       A,#0x3
        XRL       A,R2
        ORL       A,R3
        JNZ       ??HomeInit_1
//  129   {
//  130     DrinkingFountain = 0;
        CLR       0x90.2
//  131   //  HalLedSet(HAL_LED_1,HAL_LED_MODE_ON);
//  132   }
//  133 }
??HomeInit_1:
        LJMP      ?BRET
          CFI EndBlock cfiBlock1
        REQUIRE _A_P1
//  134 

        RSEG BANKED_CODE:HUGECODE:NOROOT(0)
//  135 void DataInit(void)                     //初始化数据包
DataInit:
          CFI Block cfiBlock2 Using cfiCommon0
          CFI Function DataInit
        CODE
//  136 {
        PUSH      DPL
          CFI DPL0 Frame(CFA_SP, 4)
          CFI CFA_SP SP+-4
        PUSH      DPH
          CFI DPH0 Frame(CFA_SP, 5)
          CFI CFA_SP SP+-5
        ; Saved register size: 2
        ; Auto size: 0
//  137   for(int i=0;i<5;i++)
        MOV       R0,#0x0
        MOV       R1,#0x0
//  138   {
//  139     AF_DataPack.username[i] = This_username[i];
??DataInit_0:
        MOV       A,#This_username & 0xff
        ADD       A,R0
        MOV       DPL,A
        MOV       A,#(This_username >> 8) & 0xff
        ADDC      A,R1
        MOV       DPH,A
        MOVX      A,@DPTR
        PUSH      A
          CFI CFA_SP SP+-6
        MOV       A,#AF_DataPack & 0xff
        ADD       A,R0
        MOV       DPL,A
        MOV       A,#(AF_DataPack >> 8) & 0xff
        ADDC      A,R1
        MOV       DPH,A
        POP       A
          CFI CFA_SP SP+-5
        MOVX      @DPTR,A
//  140   }
        INC       R0
        MOV       A,R0
        JNZ       ??DataInit_1
        INC       R1
??DataInit_1:
        CLR       C
        SUBB      A,#0x5
        MOV       A,R1
        SUBB      A,#0x0
        MOV       C,0xD0 /* PSW */.2
        XRL       A,PSW
        RLC       A
        JC        ??DataInit_0
//  141   
//  142   for(int j=0;j<6;j++)
        MOV       R0,#0x0
        MOV       R1,#0x0
//  143   {
//  144     AF_DataPack.password[j] = This_password[j];
??DataInit_2:
        MOV       A,#This_password & 0xff
        ADD       A,R0
        MOV       DPL,A
        MOV       A,#(This_password >> 8) & 0xff
        ADDC      A,R1
        MOV       DPH,A
        MOVX      A,@DPTR
        PUSH      A
          CFI CFA_SP SP+-6
        MOV       A,#(AF_DataPack + 5) & 0xff
        ADD       A,R0
        MOV       DPL,A
        MOV       A,#((AF_DataPack + 5) >> 8) & 0xff
        ADDC      A,R1
        MOV       DPH,A
        POP       A
          CFI CFA_SP SP+-5
        MOVX      @DPTR,A
//  145   }
        INC       R0
        MOV       A,R0
        JNZ       ??DataInit_3
        INC       R1
??DataInit_3:
        CLR       C
        SUBB      A,#0x6
        MOV       A,R1
        SUBB      A,#0x0
        MOV       C,0xD0 /* PSW */.2
        XRL       A,PSW
        RLC       A
        JC        ??DataInit_2
//  146   AF_DataPack.LightStatus[0] = '1';
        MOV       DPTR,#AF_DataPack + 11
        MOV       A,#0x31
        MOVX      @DPTR,A
//  147   AF_DataPack.LightStatus[1] = '0';
        INC       DPTR
        DEC       A
        MOVX      @DPTR,A
//  148   AF_DataPack.CurtainStatus[0] = '2';
        INC       DPTR
        MOV       A,#0x32
        MOVX      @DPTR,A
//  149   AF_DataPack.CurtainStatus[1] = '0';
        INC       DPTR
        MOV       A,#0x30
        MOVX      @DPTR,A
//  150   AF_DataPack.DrinkingFountainStatus[0] = '4';
        MOV       DPTR,#AF_DataPack + 19
        MOV       A,#0x34
        MOVX      @DPTR,A
//  151   AF_DataPack.DrinkingFountainStatus[1] = '0';
        INC       DPTR
        MOV       A,#0x30
        MOVX      @DPTR,A
//  152   AF_DataPack.AirConditioning[0] = '3';
        MOV       DPTR,#AF_DataPack + 15
        MOV       A,#0x33
        MOVX      @DPTR,A
//  153   AF_DataPack.AirConditioning[1] = '0';
        INC       DPTR
        MOV       A,#0x30
        MOVX      @DPTR,A
//  154   AF_DataPack.AirConditioning[2] = '0';
        INC       DPTR
        MOVX      @DPTR,A
//  155   AF_DataPack.AirConditioning[3] = '0';
        INC       DPTR
        MOVX      @DPTR,A
//  156   
//  157 }
        POP       DPH
          CFI DPH0 SameValue
          CFI CFA_SP SP+-4
        POP       DPL
          CFI DPL0 SameValue
          CFI CFA_SP SP+-3
        LJMP      ?BRET
          CFI EndBlock cfiBlock2
//  158 

        RSEG BANKED_CODE:HUGECODE:NOROOT(0)
//  159 UINT16 GenericApp_ProcessEvent( byte task_id, UINT16 events )
GenericApp_ProcessEvent:
          CFI Block cfiBlock3 Using cfiCommon0
          CFI Function GenericApp_ProcessEvent
        CODE
//  160 {
        FUNCALL GenericApp_ProcessEvent, osal_msg_receive
        LOCFRAME ISTACK, 0, STACK
        LOCFRAME PSTACK, 0, STACK
        LOCFRAME XSTACK, 12, STACK
        LOCFRAME IOVERLAY, 0, STATIC
        LOCFRAME DOVERLAY, 0, STATIC
        ARGFRAME ISTACK, 0, STACK
        ARGFRAME PSTACK, 0, STACK
        ARGFRAME XSTACK, 12, STACK
        ARGFRAME IOVERLAY, 0, STATIC
        ARGFRAME DOVERLAY, 0, STATIC
        FUNCALL GenericApp_ProcessEvent, osal_set_event
        LOCFRAME ISTACK, 0, STACK
        LOCFRAME PSTACK, 0, STACK
        LOCFRAME XSTACK, 12, STACK
        LOCFRAME IOVERLAY, 0, STATIC
        LOCFRAME DOVERLAY, 0, STATIC
        ARGFRAME ISTACK, 0, STACK
        ARGFRAME PSTACK, 0, STACK
        ARGFRAME XSTACK, 12, STACK
        ARGFRAME IOVERLAY, 0, STATIC
        ARGFRAME DOVERLAY, 0, STATIC
        FUNCALL GenericApp_ProcessEvent, osal_msg_deallocate
        LOCFRAME ISTACK, 0, STACK
        LOCFRAME PSTACK, 0, STACK
        LOCFRAME XSTACK, 12, STACK
        LOCFRAME IOVERLAY, 0, STATIC
        LOCFRAME DOVERLAY, 0, STATIC
        ARGFRAME ISTACK, 0, STACK
        ARGFRAME PSTACK, 0, STACK
        ARGFRAME XSTACK, 12, STACK
        ARGFRAME IOVERLAY, 0, STATIC
        ARGFRAME DOVERLAY, 0, STATIC
        FUNCALL GenericApp_ProcessEvent, osal_msg_receive
        LOCFRAME ISTACK, 0, STACK
        LOCFRAME PSTACK, 0, STACK
        LOCFRAME XSTACK, 12, STACK
        LOCFRAME IOVERLAY, 0, STATIC
        LOCFRAME DOVERLAY, 0, STATIC
        ARGFRAME ISTACK, 0, STACK
        ARGFRAME PSTACK, 0, STACK
        ARGFRAME XSTACK, 12, STACK
        ARGFRAME IOVERLAY, 0, STATIC
        ARGFRAME DOVERLAY, 0, STATIC
        FUNCALL GenericApp_ProcessEvent, GenericApp_MessageMSGCB
        LOCFRAME ISTACK, 0, STACK
        LOCFRAME PSTACK, 0, STACK
        LOCFRAME XSTACK, 12, STACK
        LOCFRAME IOVERLAY, 0, STATIC
        LOCFRAME DOVERLAY, 0, STATIC
        ARGFRAME ISTACK, 0, STACK
        ARGFRAME PSTACK, 0, STACK
        ARGFRAME XSTACK, 12, STACK
        ARGFRAME IOVERLAY, 0, STATIC
        ARGFRAME DOVERLAY, 0, STATIC
        FUNCALL GenericApp_ProcessEvent, GenericApp_SendTheMessage
        LOCFRAME ISTACK, 0, STACK
        LOCFRAME PSTACK, 0, STACK
        LOCFRAME XSTACK, 12, STACK
        LOCFRAME IOVERLAY, 0, STATIC
        LOCFRAME DOVERLAY, 0, STATIC
        ARGFRAME ISTACK, 0, STACK
        ARGFRAME PSTACK, 0, STACK
        ARGFRAME XSTACK, 12, STACK
        ARGFRAME IOVERLAY, 0, STATIC
        ARGFRAME DOVERLAY, 0, STATIC
        FUNCALL GenericApp_ProcessEvent, osal_start_timerEx
        LOCFRAME ISTACK, 0, STACK
        LOCFRAME PSTACK, 0, STACK
        LOCFRAME XSTACK, 12, STACK
        LOCFRAME IOVERLAY, 0, STATIC
        LOCFRAME DOVERLAY, 0, STATIC
        ARGFRAME ISTACK, 0, STACK
        ARGFRAME PSTACK, 0, STACK
        ARGFRAME XSTACK, 12, STACK
        ARGFRAME IOVERLAY, 0, STATIC
        ARGFRAME DOVERLAY, 0, STATIC
        REQUIRE ?V0
        REQUIRE ?V1
        REQUIRE ?V2
        REQUIRE ?V3
        MOV       A,#-0xc
        LCALL     ?BANKED_ENTER_XDATA
          CFI DPH0 load(1, XDATA, add(CFA_XSP16, literal(-1)))
          CFI DPL0 load(1, XDATA, add(CFA_XSP16, literal(-2)))
          CFI ?BRET_EXT load(1, XDATA, add(CFA_XSP16, literal(-3)))
          CFI ?RET_HIGH load(1, XDATA, add(CFA_XSP16, literal(-4)))
          CFI ?RET_LOW load(1, XDATA, add(CFA_XSP16, literal(-5)))
          CFI R7 load(1, XDATA, add(CFA_XSP16, literal(-6)))
          CFI V3 load(1, XDATA, add(CFA_XSP16, literal(-7)))
          CFI V2 load(1, XDATA, add(CFA_XSP16, literal(-8)))
          CFI V1 load(1, XDATA, add(CFA_XSP16, literal(-9)))
          CFI V0 load(1, XDATA, add(CFA_XSP16, literal(-10)))
          CFI VB load(1, XDATA, add(CFA_XSP16, literal(-11)))
          CFI R6 load(1, XDATA, add(CFA_XSP16, literal(-12)))
          CFI CFA_SP SP+0
          CFI CFA_XSP16 add(XSP16, 12)
        ; Saved register size: 12
        ; Auto size: 0
        MOV       A,R2
        MOV       R6,A
        MOV       A,R3
        MOV       R7,A
//  161   afIncomingMSGPacket_t *MSGpkt;
//  162   if ( events & SYS_EVENT_MSG )
        ANL       A,#0x80
        JZ        ??GenericApp_ProcessEvent_0
//  163   {
//  164     MSGpkt = (afIncomingMSGPacket_t *)osal_msg_receive( GenericApp_TaskID );
        ; Setup parameters for call to function osal_msg_receive
        SJMP      ??GenericApp_ProcessEvent_1
//  165     while ( MSGpkt )
//  166     {
//  167       switch ( MSGpkt->hdr.event )
//  168       {
//  169       case AF_INCOMING_MSG_CMD:
//  170         GenericApp_MessageMSGCB(MSGpkt);
//  171         break;
//  172         case ZDO_STATE_CHANGE:
//  173           GenericApp_NwkState = (devStates_t)(MSGpkt->hdr.status);
??GenericApp_ProcessEvent_2:
        INC       DPTR
        MOVX      A,@DPTR
        MOV       DPTR,#GenericApp_NwkState
        MOVX      @DPTR,A
//  174           if ( GenericApp_NwkState == DEV_END_DEVICE )
        XRL       A,#0x6
        JNZ       ??GenericApp_ProcessEvent_3
//  175           {
//  176                 osal_set_event(GenericApp_TaskID,SEND_DATA_EVENT);     
        ; Setup parameters for call to function osal_set_event
        MOV       R2,#0x1
        MOV       R3,#0x0
        MOV       DPTR,#GenericApp_TaskID
        MOVX      A,@DPTR
        MOV       R1,A
        LCALL     `??osal_set_event::?relay`; Banked call to: osal_set_event
//  177           }
//  178           break;
//  179 
//  180         default:
//  181           break;
//  182       }
//  183         osal_msg_deallocate( (uint8 *)MSGpkt );
??GenericApp_ProcessEvent_3:
        ; Setup parameters for call to function osal_msg_deallocate
        MOV       R2,?V0
        MOV       R3,?V1
        LCALL     `??osal_msg_deallocate::?relay`; Banked call to: osal_msg_deallocate
//  184         MSGpkt = (afIncomingMSGPacket_t *)osal_msg_receive( GenericApp_TaskID );
        ; Setup parameters for call to function osal_msg_receive
??GenericApp_ProcessEvent_1:
        MOV       DPTR,#GenericApp_TaskID
        MOVX      A,@DPTR
        MOV       R1,A
        LCALL     `??osal_msg_receive::?relay`; Banked call to: osal_msg_receive
        MOV       ?V0,R2
        MOV       ?V1,R3
        MOV       A,?V0
        ORL       A,?V1
        JZ        ??GenericApp_ProcessEvent_4
        MOV       DPL,?V0
        MOV       DPH,?V1
        MOVX      A,@DPTR
        ADD       A,#-0x1a
        JZ        ??GenericApp_ProcessEvent_5
        ADD       A,#0x49
        JZ        ??GenericApp_ProcessEvent_2
        SJMP      ??GenericApp_ProcessEvent_3
??GenericApp_ProcessEvent_5:
        ; Setup parameters for call to function GenericApp_MessageMSGCB
        MOV       R2,?V0
        MOV       R3,?V1
        LCALL     `??GenericApp_MessageMSGCB::?relay`; Banked call to: GenericApp_MessageMSGCB
        SJMP      ??GenericApp_ProcessEvent_3
//  185       }
//  186       return (events ^ SYS_EVENT_MSG);
??GenericApp_ProcessEvent_4:
        MOV       A,R6
        MOV       R2,A
        MOV       A,R7
        XRL       A,#0x80
        SJMP      ??GenericApp_ProcessEvent_6
//  187     }
//  188     if(events & SEND_DATA_EVENT)
??GenericApp_ProcessEvent_0:
        MOV       A,R2
        MOV       C,0xE0 /* A   */.0
        JNC       ??GenericApp_ProcessEvent_7
//  189     {
//  190       GenericApp_SendTheMessage();
        ; Setup parameters for call to function GenericApp_SendTheMessage
        LCALL     `??GenericApp_SendTheMessage::?relay`; Banked call to: GenericApp_SendTheMessage
//  191       osal_start_timerEx(GenericApp_TaskID,SEND_DATA_EVENT,2000);
        ; Setup parameters for call to function osal_start_timerEx
        MOV       R4,#-0x30
        MOV       R5,#0x7
        MOV       R2,#0x1
        MOV       R3,#0x0
        MOV       DPTR,#GenericApp_TaskID
        MOVX      A,@DPTR
        MOV       R1,A
        LCALL     `??osal_start_timerEx::?relay`; Banked call to: osal_start_timerEx
//  192       return (events ^ SEND_DATA_EVENT);
        MOV       A,R6
        XRL       A,#0x1
        MOV       R2,A
        MOV       A,R7
??GenericApp_ProcessEvent_6:
        MOV       R3,A
        SJMP      ??GenericApp_ProcessEvent_8
//  193     }
//  194   return 0;
??GenericApp_ProcessEvent_7:
        MOV       R2,#0x0
        MOV       R3,#0x0
??GenericApp_ProcessEvent_8:
        MOV       R7,#0x4
        LJMP      ?BANKED_LEAVE_XDATA
//  195 }
          CFI EndBlock cfiBlock3
//  196 

        RSEG BANKED_CODE:HUGECODE:NOROOT(0)
//  197 static void GenericApp_MessageMSGCB( afIncomingMSGPacket_t *pkt )
GenericApp_MessageMSGCB:
          CFI Block cfiBlock4 Using cfiCommon0
          CFI Function GenericApp_MessageMSGCB
        CODE
//  198 {
        FUNCALL GenericApp_MessageMSGCB, osal_memcpy
        LOCFRAME ISTACK, 0, STACK
        LOCFRAME PSTACK, 0, STACK
        LOCFRAME XSTACK, 16, STACK
        LOCFRAME IOVERLAY, 0, STATIC
        LOCFRAME DOVERLAY, 0, STATIC
        ARGFRAME ISTACK, 0, STACK
        ARGFRAME PSTACK, 0, STACK
        ARGFRAME XSTACK, 16, STACK
        ARGFRAME IOVERLAY, 0, STATIC
        ARGFRAME DOVERLAY, 0, STATIC
        FUNCALL GenericApp_MessageMSGCB, HalLedSet
        LOCFRAME ISTACK, 0, STACK
        LOCFRAME PSTACK, 0, STACK
        LOCFRAME XSTACK, 13, STACK
        LOCFRAME IOVERLAY, 0, STATIC
        LOCFRAME DOVERLAY, 0, STATIC
        ARGFRAME ISTACK, 0, STACK
        ARGFRAME PSTACK, 0, STACK
        ARGFRAME XSTACK, 13, STACK
        ARGFRAME IOVERLAY, 0, STATIC
        ARGFRAME DOVERLAY, 0, STATIC
        FUNCALL GenericApp_MessageMSGCB, HalLedSet
        LOCFRAME ISTACK, 0, STACK
        LOCFRAME PSTACK, 0, STACK
        LOCFRAME XSTACK, 13, STACK
        LOCFRAME IOVERLAY, 0, STATIC
        LOCFRAME DOVERLAY, 0, STATIC
        ARGFRAME ISTACK, 0, STACK
        ARGFRAME PSTACK, 0, STACK
        ARGFRAME XSTACK, 13, STACK
        ARGFRAME IOVERLAY, 0, STATIC
        ARGFRAME DOVERLAY, 0, STATIC
        FUNCALL GenericApp_MessageMSGCB, HalLedSet
        LOCFRAME ISTACK, 0, STACK
        LOCFRAME PSTACK, 0, STACK
        LOCFRAME XSTACK, 13, STACK
        LOCFRAME IOVERLAY, 0, STATIC
        LOCFRAME DOVERLAY, 0, STATIC
        ARGFRAME ISTACK, 0, STACK
        ARGFRAME PSTACK, 0, STACK
        ARGFRAME XSTACK, 13, STACK
        ARGFRAME IOVERLAY, 0, STATIC
        ARGFRAME DOVERLAY, 0, STATIC
        REQUIRE ?V0
        REQUIRE ?V1
        REQUIRE ?V2
        MOV       A,#-0xb
        LCALL     ?BANKED_ENTER_XDATA
          CFI DPH0 load(1, XDATA, add(CFA_XSP16, literal(-1)))
          CFI DPL0 load(1, XDATA, add(CFA_XSP16, literal(-2)))
          CFI ?BRET_EXT load(1, XDATA, add(CFA_XSP16, literal(-3)))
          CFI ?RET_HIGH load(1, XDATA, add(CFA_XSP16, literal(-4)))
          CFI ?RET_LOW load(1, XDATA, add(CFA_XSP16, literal(-5)))
          CFI R7 load(1, XDATA, add(CFA_XSP16, literal(-6)))
          CFI V2 load(1, XDATA, add(CFA_XSP16, literal(-7)))
          CFI V1 load(1, XDATA, add(CFA_XSP16, literal(-8)))
          CFI V0 load(1, XDATA, add(CFA_XSP16, literal(-9)))
          CFI VB load(1, XDATA, add(CFA_XSP16, literal(-10)))
          CFI R6 load(1, XDATA, add(CFA_XSP16, literal(-11)))
          CFI CFA_SP SP+0
          CFI CFA_XSP16 add(XSP16, 11)
        ; Saved register size: 11
        ; Auto size: 2
        MOV       A,#-0x2
        LCALL     ?ALLOC_XSTACK8
          CFI CFA_XSP16 add(XSP16, 13)
//  199 #ifdef AirConditioning
//  200  unsigned char airConditioning[5];
//  201   int tp;
//  202   
//  203   switch (pkt -> clusterId)
//  204   {
//  205   case GENERICAPP_CLUSTERID:
//  206     osal_memcpy(airConditioning,pkt->cmd.Data,5);
//  207     tp = (airConditioning[3] - '0')*10 + (airConditioning[4] - '0');
//  208     if(airConditioning[2] == '1')
//  209     {
//  210      //Air_conditioner_on(1);
//  211       Air_conditioner_control(tp);
//  212       AF_DataPack.AirConditioning[1] = '1';
//  213       AF_DataPack.AirConditioning[2] = airConditioning[3];
//  214       AF_DataPack.AirConditioning[3] = airConditioning[4];
//  215     
//  216     }
//  217     if(airConditioning[2] == '0')
//  218     {
//  219       Air_conditioner_off(0);
//  220       AF_DataPack.AirConditioning[1] = '0';
//  221     }
//  222   }
//  223 #elif Drinking
//  224   //饮水机饮水机饮水机饮水机饮水机饮水机
//  225   unsigned char Drinking_Fountain[6];
//  226   switch (pkt -> clusterId)
//  227   {
//  228   case GENERICAPP_CLUSTERID:
//  229     osal_memcpy(Drinking_Fountain,pkt->cmd.Data,6);
//  230     if(Drinking_Fountain[5] == '1') 
//  231     {
//  232       DrinkingFountain = 1;
//  233       AF_DataPack.DrinkingFountainStatus[1] = '1';
//  234       HalLedSet(HAL_LED_1,HAL_LED_MODE_OFF);
//  235     }
//  236     if(Drinking_Fountain[5] == '0')
//  237     {
//  238       DrinkingFountain = 0;
//  239       AF_DataPack.DrinkingFountainStatus[1] = '0';
//  240       HalLedSet(HAL_LED_1,HAL_LED_MODE_ON);
//  241     }
//  242   }
//  243 #elif Curtain
//  244   //窗帘窗帘窗帘窗帘窗帘窗帘窗帘窗帘窗帘窗帘
//  245   unsigned char curtain[2];
//  246   switch (pkt -> clusterId)
        MOV       DPL,R2
        MOV       DPH,R3
        INC       DPTR
        INC       DPTR
        INC       DPTR
        INC       DPTR
        MOVX      A,@DPTR
        XRL       A,#0x1
        JNZ       ??GenericApp_MessageMSGCB_0
        INC       DPTR
        MOVX      A,@DPTR
??GenericApp_MessageMSGCB_0:
        JNZ       ??GenericApp_MessageMSGCB_1
//  247   {
//  248   case GENERICAPP_CLUSTERID:
//  249     osal_memcpy(curtain,pkt->cmd.Data,2);
        ; Setup parameters for call to function osal_memcpy
        MOV       A,R2
        ADD       A,#0x22
        MOV       DPL,A
        CLR       A
        ADDC      A,R3
        MOV       DPH,A
        MOVX      A,@DPTR
        MOV       ?V0,A
        INC       DPTR
        MOVX      A,@DPTR
        MOV       ?V1,A
        MOV       ?V2,#0x0
        MOV       R0,#?V0
        LCALL     ?PUSH_XSTACK_I_THREE
          CFI CFA_XSP16 add(XSP16, 16)
        MOV       R4,#0x2
        MOV       R5,#0x0
        MOV       A,#0x3
        LCALL     ?XSTACK_DISP101_8
        LCALL     `??osal_memcpy::?relay`; Banked call to: osal_memcpy
        MOV       A,#0x3
        LCALL     ?DEALLOC_XSTACK8
          CFI CFA_XSP16 add(XSP16, 13)
//  250     if(curtain[1] == '0')
        MOV       A,#0x1
        LCALL     ?XSTACK_DISP0_8
        MOVX      A,@DPTR
        XRL       A,#0x30
        JNZ       ??CrossCallReturnLabel_0
//  251     {
//  252       CurtainON = 1;
        SETB      0x90.1
//  253       AF_DataPack.CurtainStatus[1] = '0';
        MOV       DPTR,#AF_DataPack + 14
        MOV       A,#0x30
        LCALL     ?Subroutine0 & 0xFFFF
//  254       HalLedSet(HAL_LED_1,HAL_LED_MODE_OFF);
//  255     }
//  256     if(curtain[1] == '2')
??CrossCallReturnLabel_0:
        MOV       A,#0x1
        LCALL     ?XSTACK_DISP0_8
        MOVX      A,@DPTR
        XRL       A,#0x32
        JNZ       ??CrossCallReturnLabel_1
//  257     {
//  258       CurtainOFF = 0;
        CLR       0x90.0
//  259       AF_DataPack.CurtainStatus[1] = '2';
        MOV       DPTR,#AF_DataPack + 14
        MOV       A,#0x32
        LCALL     ?Subroutine0 & 0xFFFF
//  260       HalLedSet(HAL_LED_1,HAL_LED_MODE_OFF);
//  261     }
//  262     if(curtain[1] == '1')
??CrossCallReturnLabel_1:
        MOV       A,#0x1
        LCALL     ?XSTACK_DISP0_8
        MOVX      A,@DPTR
        XRL       A,#0x31
        JNZ       ??GenericApp_MessageMSGCB_1
//  263     {
//  264       CurtainOFF = 1;
        SETB      0x90.0
//  265       CurtainON = 0;
        CLR       0x90.1
//  266       AF_DataPack.CurtainStatus[1] = '1';
        MOV       DPTR,#AF_DataPack + 14
        MOV       A,#0x31
        MOVX      @DPTR,A
//  267       HalLedSet(HAL_LED_1,HAL_LED_MODE_ON);
        ; Setup parameters for call to function HalLedSet
        MOV       R2,#0x1
        MOV       R1,#0x1
        LCALL     `??HalLedSet::?relay`; Banked call to: HalLedSet
//  268     }
//  269   }
//  270 #elif Light_D
//  271   //灯灯灯灯灯灯灯灯灯灯灯灯灯灯灯灯灯灯灯灯灯
//  272   unsigned char light[1];
//  273   switch (pkt -> clusterId)
//  274   {
//  275   case GENERICAPP_CLUSTERID:
//  276     osal_memcpy(light,pkt->cmd.Data,1);
//  277     if(light[0] == '1')
//  278     {
//  279       Light = 0;
//  280       AF_DataPack.LightStatus[1] = '1';
//  281       HalLedSet(HAL_LED_1,HAL_LED_MODE_OFF);
//  282     }
//  283     if(light[0] == '0')
//  284     {
//  285       Light = 1;
//  286       AF_DataPack.LightStatus[1] = '0';
//  287       HalLedSet(HAL_LED_1,HAL_LED_MODE_ON);
//  288     }
//  289   }
//  290 #endif
//  291   
//  292 }
??GenericApp_MessageMSGCB_1:
        MOV       A,#0x2
        LCALL     ?DEALLOC_XSTACK8
          CFI CFA_XSP16 add(XSP16, 11)
        MOV       R7,#0x3
        LJMP      ?BANKED_LEAVE_XDATA
          CFI EndBlock cfiBlock4
        REQUIRE _A_P1

        RSEG BANKED_CODE:HUGECODE:NOROOT(0)
?Subroutine0:
          CFI Block cfiCond5 Using cfiCommon0
          CFI Function GenericApp_MessageMSGCB
          CFI Conditional ??CrossCallReturnLabel_0
          CFI R6 load(1, XDATA, add(CFA_XSP16, literal(-11)))
          CFI VB load(1, XDATA, add(CFA_XSP16, literal(-10)))
          CFI V0 load(1, XDATA, add(CFA_XSP16, literal(-9)))
          CFI V1 load(1, XDATA, add(CFA_XSP16, literal(-8)))
          CFI V2 load(1, XDATA, add(CFA_XSP16, literal(-7)))
          CFI R7 load(1, XDATA, add(CFA_XSP16, literal(-6)))
          CFI ?RET_LOW load(1, XDATA, add(CFA_XSP16, literal(-5)))
          CFI ?RET_HIGH load(1, XDATA, add(CFA_XSP16, literal(-4)))
          CFI ?BRET_EXT load(1, XDATA, add(CFA_XSP16, literal(-3)))
          CFI DPL0 load(1, XDATA, add(CFA_XSP16, literal(-2)))
          CFI DPH0 load(1, XDATA, add(CFA_XSP16, literal(-1)))
          CFI CFA_SP SP+-2
          CFI CFA_XSP16 add(XSP16, 13)
          CFI Block cfiCond6 Using cfiCommon0
          CFI (cfiCond6) Function GenericApp_MessageMSGCB
          CFI (cfiCond6) Conditional ??CrossCallReturnLabel_1
          CFI (cfiCond6) R6 load(1, XDATA, add(CFA_XSP16, literal(-11)))
          CFI (cfiCond6) VB load(1, XDATA, add(CFA_XSP16, literal(-10)))
          CFI (cfiCond6) V0 load(1, XDATA, add(CFA_XSP16, literal(-9)))
          CFI (cfiCond6) V1 load(1, XDATA, add(CFA_XSP16, literal(-8)))
          CFI (cfiCond6) V2 load(1, XDATA, add(CFA_XSP16, literal(-7)))
          CFI (cfiCond6) R7 load(1, XDATA, add(CFA_XSP16, literal(-6)))
          CFI (cfiCond6) ?RET_LOW load(1, XDATA, add(CFA_XSP16, literal(-5)))
          CFI (cfiCond6) ?RET_HIGH load(1, XDATA, add(CFA_XSP16, literal(-4)))
          CFI (cfiCond6) ?BRET_EXT load(1, XDATA, add(CFA_XSP16, literal(-3)))
          CFI (cfiCond6) DPL0 load(1, XDATA, add(CFA_XSP16, literal(-2)))
          CFI (cfiCond6) DPH0 load(1, XDATA, add(CFA_XSP16, literal(-1)))
          CFI (cfiCond6) CFA_SP SP+-2
          CFI (cfiCond6) CFA_XSP16 add(XSP16, 13)
          CFI Block cfiPicker7 Using cfiCommon1
          CFI (cfiPicker7) NoFunction
          CFI (cfiPicker7) Picker
        MOVX      @DPTR,A
        ; Setup parameters for call to function HalLedSet
        ; Setup parameters for call to function HalLedSet
        MOV       R2,#0x0
        MOV       R1,#0x1
        LCALL     `??HalLedSet::?relay`; Banked call to: HalLedSet
        RET
          CFI EndBlock cfiCond5
          CFI EndBlock cfiCond6
          CFI EndBlock cfiPicker7
//  293 
//  294 /*********发送的数据包需要更换**********/

        RSEG BANKED_CODE:HUGECODE:NOROOT(0)
//  295 void GenericApp_SendTheMessage( void )
GenericApp_SendTheMessage:
          CFI Block cfiBlock8 Using cfiCommon0
          CFI Function GenericApp_SendTheMessage
        CODE
//  296 {
        FUNCALL GenericApp_SendTheMessage, AF_DataRequest
        LOCFRAME ISTACK, 0, STACK
        LOCFRAME PSTACK, 0, STACK
        LOCFRAME XSTACK, 31, STACK
        LOCFRAME IOVERLAY, 0, STATIC
        LOCFRAME DOVERLAY, 0, STATIC
        ARGFRAME ISTACK, 0, STACK
        ARGFRAME PSTACK, 0, STACK
        ARGFRAME XSTACK, 31, STACK
        ARGFRAME IOVERLAY, 0, STATIC
        ARGFRAME DOVERLAY, 0, STATIC
        REQUIRE ?V0
        REQUIRE ?V1
        MOV       A,#-0xa
        LCALL     ?BANKED_ENTER_XDATA
          CFI DPH0 load(1, XDATA, add(CFA_XSP16, literal(-1)))
          CFI DPL0 load(1, XDATA, add(CFA_XSP16, literal(-2)))
          CFI ?BRET_EXT load(1, XDATA, add(CFA_XSP16, literal(-3)))
          CFI ?RET_HIGH load(1, XDATA, add(CFA_XSP16, literal(-4)))
          CFI ?RET_LOW load(1, XDATA, add(CFA_XSP16, literal(-5)))
          CFI R7 load(1, XDATA, add(CFA_XSP16, literal(-6)))
          CFI V1 load(1, XDATA, add(CFA_XSP16, literal(-7)))
          CFI V0 load(1, XDATA, add(CFA_XSP16, literal(-8)))
          CFI VB load(1, XDATA, add(CFA_XSP16, literal(-9)))
          CFI R6 load(1, XDATA, add(CFA_XSP16, literal(-10)))
          CFI CFA_SP SP+0
          CFI CFA_XSP16 add(XSP16, 10)
        ; Saved register size: 10
        ; Auto size: 12
        MOV       A,#-0xc
        LCALL     ?ALLOC_XSTACK8
          CFI CFA_XSP16 add(XSP16, 22)
//  297   afAddrType_t my_DstAddr;
//  298   my_DstAddr.addrMode = (afAddrMode_t)Addr16Bit;
        MOV       A,#0x8
        LCALL     ?XSTACK_DISP0_8
        MOV       A,#0x2
        MOVX      @DPTR,A
//  299   my_DstAddr.endPoint = GENERICAPP_ENDPOINT;
        MOV       A,#0x9
        LCALL     ?XSTACK_DISP0_8
        MOV       A,#0xa
        MOVX      @DPTR,A
//  300   my_DstAddr.addr.shortAddr = 0X0000;
        MOV       DPL,?XSP + 0
        MOV       DPH,?XSP + 1
        CLR       A
        MOVX      @DPTR,A
        INC       DPTR
        MOVX      @DPTR,A
//  301 #ifdef Curtain
//  302   AF_DataRequest( &my_DstAddr, &GenericApp_epDesc,
//  303                   GENERICAPP_CLUSTERID,
//  304                   sizeof(AF_DataPack.CurtainStatus),            //对应模块发个自对应的数据包中所属的部分
//  305                   (uint8*)&AF_DataPack.CurtainStatus,
//  306                   &GenericApp_TransID,
//  307                   AF_DISCV_ROUTE,
//  308                   AF_DEFAULT_RADIUS );
        ; Setup parameters for call to function AF_DataRequest
        MOV       ?V0,#0x1e
        MOV       R0,#?V0
        LCALL     ?PUSH_XSTACK_I_ONE
          CFI CFA_XSP16 add(XSP16, 23)
        MOV       ?V0,#GenericApp_TransID & 0xff
        MOV       ?V1,#(GenericApp_TransID >> 8) & 0xff
        MOV       R0,#?V0
        LCALL     ?PUSH_XSTACK_I_TWO
          CFI CFA_XSP16 add(XSP16, 25)
        MOV       ?V0,#(AF_DataPack + 13) & 0xff
        MOV       ?V1,#((AF_DataPack + 13) >> 8) & 0xff
        MOV       R0,#?V0
        LCALL     ?PUSH_XSTACK_I_TWO
          CFI CFA_XSP16 add(XSP16, 27)
        MOV       ?V0,#0x2
        MOV       ?V1,#0x0
        MOV       R0,#?V0
        LCALL     ?PUSH_XSTACK_I_TWO
          CFI CFA_XSP16 add(XSP16, 29)
        MOV       ?V0,#0x1
        MOV       R0,#?V0
        LCALL     ?PUSH_XSTACK_I_TWO
          CFI CFA_XSP16 add(XSP16, 31)
        MOV       R1,#0x20
        MOV       R4,#GenericApp_epDesc & 0xff
        MOV       R5,#(GenericApp_epDesc >> 8) & 0xff
        MOV       A,#0x9
        LCALL     ?XSTACK_DISP101_8
        LCALL     `??AF_DataRequest::?relay`; Banked call to: AF_DataRequest
        MOV       A,#0x9
        LCALL     ?DEALLOC_XSTACK8
          CFI CFA_XSP16 add(XSP16, 22)
//  309 #elif Drinking
//  310   AF_DataRequest( &my_DstAddr, &GenericApp_epDesc,
//  311                   GENERICAPP_CLUSTERID,
//  312                   sizeof(AF_DataPack.DrinkingFountainStatus),            //对应模块发个自对应的数据包中所属的部分
//  313                   (uint8*)&AF_DataPack.DrinkingFountainStatus,
//  314                   &GenericApp_TransID,
//  315                   AF_DISCV_ROUTE,
//  316                   AF_DEFAULT_RADIUS );
//  317 #elif Light_D
//  318   AF_DataRequest( &my_DstAddr, &GenericApp_epDesc,
//  319                   GENERICAPP_CLUSTERID,
//  320                   sizeof(AF_DataPack.LightStatus),            //对应模块发个自对应的数据包中所属的部分
//  321                   (uint8*)&AF_DataPack.LightStatus,
//  322                   &GenericApp_TransID,
//  323                   AF_DISCV_ROUTE,
//  324                   AF_DEFAULT_RADIUS );
//  325 #elif AirConditioning
//  326    AF_DataRequest( &my_DstAddr, &GenericApp_epDesc,
//  327                   GENERICAPP_CLUSTERID,
//  328                   sizeof(AF_DataPack.AirConditioning),            //对应模块发个自对应的数据包中所属的部分
//  329                   (uint8*)&AF_DataPack.AirConditioning,
//  330                   &GenericApp_TransID,
//  331                   AF_DISCV_ROUTE,
//  332                   AF_DEFAULT_RADIUS );
//  333 #endif
//  334 }
        MOV       A,#0xc
        LCALL     ?DEALLOC_XSTACK8
          CFI CFA_XSP16 add(XSP16, 10)
        MOV       R7,#0x2
        LJMP      ?BANKED_LEAVE_XDATA
          CFI EndBlock cfiBlock8
//  335 
//  336 

        RSEG BANKED_CODE:HUGECODE:NOROOT(0)
//  337 void delay(uint8 i)
delay:
          CFI Block cfiBlock9 Using cfiCommon0
          CFI Function delay
        CODE
//  338 {
        ; Saved register size: 0
        ; Auto size: 0
//  339   while(i--);
??delay_0:
        MOV       A,R1
        MOV       R0,A
        MOV       A,#-0x1
        ADD       A,R0
        MOV       R1,A
        INC       A
        JNZ       ??delay_0
//  340 }
        LJMP      ?BRET
          CFI EndBlock cfiBlock9

        RSEG XDATA_ID:CODE:NOROOT(0)
`?<Initializer for This_username>`:
        DB "Maker"

        RSEG XDATA_ID:CODE:NOROOT(0)
`?<Initializer for This_password>`:
        DB "116114"

        RSEG BANK_RELAYS:CODE:REORDER:NOROOT(0)
`??GenericApp_Init::?relay`:
        CODE
        LCALL   ?BDISPATCH
        DATA24
        DC24    GenericApp_Init

        RSEG BANK_RELAYS:CODE:REORDER:NOROOT(0)
`??HomeInit::?relay`:
        CODE
        LCALL   ?BDISPATCH
        DATA24
        DC24    HomeInit

        RSEG BANK_RELAYS:CODE:REORDER:NOROOT(0)
`??DataInit::?relay`:
        CODE
        LCALL   ?BDISPATCH
        DATA24
        DC24    DataInit

        RSEG BANK_RELAYS:CODE:REORDER:NOROOT(0)
`??GenericApp_ProcessEvent::?relay`:
        CODE
        LCALL   ?BDISPATCH
        DATA24
        DC24    GenericApp_ProcessEvent

        RSEG BANK_RELAYS:CODE:REORDER:NOROOT(0)
`??GenericApp_MessageMSGCB::?relay`:
        CODE
        LCALL   ?BDISPATCH
        DATA24
        DC24    GenericApp_MessageMSGCB

        RSEG BANK_RELAYS:CODE:REORDER:NOROOT(0)
`??GenericApp_SendTheMessage::?relay`:
        CODE
        LCALL   ?BDISPATCH
        DATA24
        DC24    GenericApp_SendTheMessage

        RSEG BANK_RELAYS:CODE:REORDER:NOROOT(0)
`??delay::?relay`:
        CODE
        LCALL   ?BDISPATCH
        DATA24
        DC24    delay

        END
//  341 /*static void rxCB(uint8 port,uint8 event)     //port 端口   采用串口‘0’
//  342 {
//  343   HalUARTRead(0,uartbuf,2);
//  344   GenericApp_SendTheMessage();
//  345 }
//  346 */
// 
// 719 bytes in segment BANKED_CODE
//  42 bytes in segment BANK_RELAYS
//   3 bytes in segment SFR_AN
//  13 bytes in segment XDATA_I
//  13 bytes in segment XDATA_ID
//  14 bytes in segment XDATA_ROM_C
//  30 bytes in segment XDATA_Z
// 
//  55 bytes of CODE     memory
//  14 bytes of CONST    memory
//   0 bytes of DATA     memory (+ 3 bytes shared)
// 719 bytes of HUGECODE memory
//  43 bytes of XDATA    memory
//
//Errors: none
//Warnings: none
